	.file	"convention.c"
	.text
.Ltext0:
	.globl	function3
	.type	function3, @function
function3:
.LFB0:
	.file 1 "convention.c"
	.loc 1 5 0
	.cfi_startproc
	pushq	%rbp
	.cfi_def_cfa_offset 16
	.cfi_offset 6, -16
	movq	%rsp, %rbp
	.cfi_def_cfa_register 6
	movl	%edi, -4(%rbp)
	movl	%esi, -8(%rbp)
	movl	%edx, -12(%rbp)
	movl	%ecx, -16(%rbp)
	.loc 1 6 0
	movl	-4(%rbp), %edx
	movl	-8(%rbp), %eax
	addl	%eax, %edx
	movl	-12(%rbp), %eax
	imull	-16(%rbp), %eax
	addl	%edx, %eax
	.loc 1 7 0
	popq	%rbp
	.cfi_def_cfa 7, 8
	ret
	.cfi_endproc
.LFE0:
	.size	function3, .-function3
	.globl	function2
	.type	function2, @function
function2:
.LFB1:
	.loc 1 10 0
	.cfi_startproc
	pushq	%rbp
	.cfi_def_cfa_offset 16
	.cfi_offset 6, -16
	movq	%rsp, %rbp
	.cfi_def_cfa_register 6
	movl	%edi, -4(%rbp)
	movl	%esi, -8(%rbp)
	movl	%edx, -12(%rbp)
	movl	%ecx, -16(%rbp)
	.loc 1 11 0
	movl	-4(%rbp), %edx
	movl	-8(%rbp), %eax
	addl	%eax, %edx
	movl	-12(%rbp), %eax
	imull	-16(%rbp), %eax
	subl	%eax, %edx
	movl	%edx, %eax
	.loc 1 12 0
	popq	%rbp
	.cfi_def_cfa 7, 8
	ret
	.cfi_endproc
.LFE1:
	.size	function2, .-function2
	.globl	function1
	.type	function1, @function
function1:
.LFB2:
	.loc 1 15 0
	.cfi_startproc
	pushq	%rbp
	.cfi_def_cfa_offset 16
	.cfi_offset 6, -16
	movq	%rsp, %rbp
	.cfi_def_cfa_register 6
	pushq	%rbx
	subq	$16, %rsp
	.cfi_offset 3, -24
	movl	%edi, -12(%rbp)
	movl	%esi, -16(%rbp)
	movl	%edx, -20(%rbp)
	.loc 1 16 0
	movl	-20(%rbp), %edx
	movl	-16(%rbp), %esi
	movl	-12(%rbp), %eax
	movl	$10, %ecx
	movl	%eax, %edi
	call	function2
	movl	%eax, %ebx
	movl	-16(%rbp), %edx
	movl	-12(%rbp), %esi
	movl	-20(%rbp), %eax
	movl	$20, %ecx
	movl	%eax, %edi
	call	function3
	addl	%ebx, %eax
	.loc 1 17 0
	addq	$16, %rsp
	popq	%rbx
	popq	%rbp
	.cfi_def_cfa 7, 8
	ret
	.cfi_endproc
.LFE2:
	.size	function1, .-function1
	.globl	main
	.type	main, @function
main:
.LFB3:
	.loc 1 20 0
	.cfi_startproc
	pushq	%rbp
	.cfi_def_cfa_offset 16
	.cfi_offset 6, -16
	movq	%rsp, %rbp
	.cfi_def_cfa_register 6
	.loc 1 21 0
	movl	$3, %edx
	movl	$2, %esi
	movl	$1, %edi
	call	function1
	.loc 1 22 0
	movl	$0, %eax
	.loc 1 23 0
	popq	%rbp
	.cfi_def_cfa 7, 8
	ret
	.cfi_endproc
.LFE3:
	.size	main, .-main
.Letext0:
	.section	.note.GNU-stack,"",@progbits
