
vtbl:     file format elf32-i386


Disassembly of section .init:

08048640 <_init>:
 8048640:	53                   	push   %ebx
 8048641:	83 ec 08             	sub    $0x8,%esp
 8048644:	e8 17 01 00 00       	call   8048760 <__x86.get_pc_thunk.bx>
 8048649:	81 c3 73 20 00 00    	add    $0x2073,%ebx
 804864f:	8b 83 fc ff ff ff    	mov    -0x4(%ebx),%eax
 8048655:	85 c0                	test   %eax,%eax
 8048657:	74 05                	je     804865e <_init+0x1e>
 8048659:	e8 32 00 00 00       	call   8048690 <__gmon_start__@plt>
 804865e:	83 c4 08             	add    $0x8,%esp
 8048661:	5b                   	pop    %ebx
 8048662:	c3                   	ret    

Disassembly of section .plt:

08048670 <__cxa_atexit@plt-0x10>:
 8048670:	ff 35 c0 a6 04 08    	pushl  0x804a6c0
 8048676:	ff 25 c4 a6 04 08    	jmp    *0x804a6c4
 804867c:	00 00                	add    %al,(%eax)
	...

08048680 <__cxa_atexit@plt>:
 8048680:	ff 25 c8 a6 04 08    	jmp    *0x804a6c8
 8048686:	68 00 00 00 00       	push   $0x0
 804868b:	e9 e0 ff ff ff       	jmp    8048670 <_init+0x30>

08048690 <__gmon_start__@plt>:
 8048690:	ff 25 cc a6 04 08    	jmp    *0x804a6cc
 8048696:	68 08 00 00 00       	push   $0x8
 804869b:	e9 d0 ff ff ff       	jmp    8048670 <_init+0x30>

080486a0 <_ZdlPv@plt>:
 80486a0:	ff 25 d0 a6 04 08    	jmp    *0x804a6d0
 80486a6:	68 10 00 00 00       	push   $0x10
 80486ab:	e9 c0 ff ff ff       	jmp    8048670 <_init+0x30>

080486b0 <_ZNSt8ios_base4InitC1Ev@plt>:
 80486b0:	ff 25 d4 a6 04 08    	jmp    *0x804a6d4
 80486b6:	68 18 00 00 00       	push   $0x18
 80486bb:	e9 b0 ff ff ff       	jmp    8048670 <_init+0x30>

080486c0 <__libc_start_main@plt>:
 80486c0:	ff 25 d8 a6 04 08    	jmp    *0x804a6d8
 80486c6:	68 20 00 00 00       	push   $0x20
 80486cb:	e9 a0 ff ff ff       	jmp    8048670 <_init+0x30>

080486d0 <_ZNSt8ios_base4InitD1Ev@plt>:
 80486d0:	ff 25 dc a6 04 08    	jmp    *0x804a6dc
 80486d6:	68 28 00 00 00       	push   $0x28
 80486db:	e9 90 ff ff ff       	jmp    8048670 <_init+0x30>

080486e0 <_ZStlsISt11char_traitsIcEERSt13basic_ostreamIcT_ES5_PKc@plt>:
 80486e0:	ff 25 e0 a6 04 08    	jmp    *0x804a6e0
 80486e6:	68 30 00 00 00       	push   $0x30
 80486eb:	e9 80 ff ff ff       	jmp    8048670 <_init+0x30>

080486f0 <_ZNSolsEPFRSoS_E@plt>:
 80486f0:	ff 25 e4 a6 04 08    	jmp    *0x804a6e4
 80486f6:	68 38 00 00 00       	push   $0x38
 80486fb:	e9 70 ff ff ff       	jmp    8048670 <_init+0x30>

08048700 <_ZSt4endlIcSt11char_traitsIcEERSt13basic_ostreamIT_T0_ES6_@plt>:
 8048700:	ff 25 e8 a6 04 08    	jmp    *0x804a6e8
 8048706:	68 40 00 00 00       	push   $0x40
 804870b:	e9 60 ff ff ff       	jmp    8048670 <_init+0x30>

08048710 <__gxx_personality_v0@plt>:
 8048710:	ff 25 ec a6 04 08    	jmp    *0x804a6ec
 8048716:	68 48 00 00 00       	push   $0x48
 804871b:	e9 50 ff ff ff       	jmp    8048670 <_init+0x30>

08048720 <_Unwind_Resume@plt>:
 8048720:	ff 25 f0 a6 04 08    	jmp    *0x804a6f0
 8048726:	68 50 00 00 00       	push   $0x50
 804872b:	e9 40 ff ff ff       	jmp    8048670 <_init+0x30>

Disassembly of section .text:

08048730 <_start>:
 8048730:	31 ed                	xor    %ebp,%ebp
 8048732:	5e                   	pop    %esi
 8048733:	89 e1                	mov    %esp,%ecx
 8048735:	83 e4 f0             	and    $0xfffffff0,%esp
 8048738:	50                   	push   %eax
 8048739:	54                   	push   %esp
 804873a:	52                   	push   %edx
 804873b:	68 20 8f 04 08       	push   $0x8048f20
 8048740:	68 b0 8e 04 08       	push   $0x8048eb0
 8048745:	51                   	push   %ecx
 8048746:	56                   	push   %esi
 8048747:	68 2b 88 04 08       	push   $0x804882b
 804874c:	e8 6f ff ff ff       	call   80486c0 <__libc_start_main@plt>
 8048751:	f4                   	hlt    
 8048752:	66 90                	xchg   %ax,%ax
 8048754:	66 90                	xchg   %ax,%ax
 8048756:	66 90                	xchg   %ax,%ax
 8048758:	66 90                	xchg   %ax,%ax
 804875a:	66 90                	xchg   %ax,%ax
 804875c:	66 90                	xchg   %ax,%ax
 804875e:	66 90                	xchg   %ax,%ax

08048760 <__x86.get_pc_thunk.bx>:
 8048760:	8b 1c 24             	mov    (%esp),%ebx
 8048763:	c3                   	ret    
 8048764:	66 90                	xchg   %ax,%ax
 8048766:	66 90                	xchg   %ax,%ax
 8048768:	66 90                	xchg   %ax,%ax
 804876a:	66 90                	xchg   %ax,%ax
 804876c:	66 90                	xchg   %ax,%ax
 804876e:	66 90                	xchg   %ax,%ax

08048770 <deregister_tm_clones>:
 8048770:	b8 ff a6 04 08       	mov    $0x804a6ff,%eax
 8048775:	2d fc a6 04 08       	sub    $0x804a6fc,%eax
 804877a:	83 f8 06             	cmp    $0x6,%eax
 804877d:	76 1a                	jbe    8048799 <deregister_tm_clones+0x29>
 804877f:	b8 00 00 00 00       	mov    $0x0,%eax
 8048784:	85 c0                	test   %eax,%eax
 8048786:	74 11                	je     8048799 <deregister_tm_clones+0x29>
 8048788:	55                   	push   %ebp
 8048789:	89 e5                	mov    %esp,%ebp
 804878b:	83 ec 14             	sub    $0x14,%esp
 804878e:	68 fc a6 04 08       	push   $0x804a6fc
 8048793:	ff d0                	call   *%eax
 8048795:	83 c4 10             	add    $0x10,%esp
 8048798:	c9                   	leave  
 8048799:	f3 c3                	repz ret 
 804879b:	90                   	nop
 804879c:	8d 74 26 00          	lea    0x0(%esi,%eiz,1),%esi

080487a0 <register_tm_clones>:
 80487a0:	b8 fc a6 04 08       	mov    $0x804a6fc,%eax
 80487a5:	2d fc a6 04 08       	sub    $0x804a6fc,%eax
 80487aa:	c1 f8 02             	sar    $0x2,%eax
 80487ad:	89 c2                	mov    %eax,%edx
 80487af:	c1 ea 1f             	shr    $0x1f,%edx
 80487b2:	01 d0                	add    %edx,%eax
 80487b4:	d1 f8                	sar    %eax
 80487b6:	74 1b                	je     80487d3 <register_tm_clones+0x33>
 80487b8:	ba 00 00 00 00       	mov    $0x0,%edx
 80487bd:	85 d2                	test   %edx,%edx
 80487bf:	74 12                	je     80487d3 <register_tm_clones+0x33>
 80487c1:	55                   	push   %ebp
 80487c2:	89 e5                	mov    %esp,%ebp
 80487c4:	83 ec 10             	sub    $0x10,%esp
 80487c7:	50                   	push   %eax
 80487c8:	68 fc a6 04 08       	push   $0x804a6fc
 80487cd:	ff d2                	call   *%edx
 80487cf:	83 c4 10             	add    $0x10,%esp
 80487d2:	c9                   	leave  
 80487d3:	f3 c3                	repz ret 
 80487d5:	8d 74 26 00          	lea    0x0(%esi,%eiz,1),%esi
 80487d9:	8d bc 27 00 00 00 00 	lea    0x0(%edi,%eiz,1),%edi

080487e0 <__do_global_dtors_aux>:
 80487e0:	80 3d 0c a8 04 08 00 	cmpb   $0x0,0x804a80c
 80487e7:	75 13                	jne    80487fc <__do_global_dtors_aux+0x1c>
 80487e9:	55                   	push   %ebp
 80487ea:	89 e5                	mov    %esp,%ebp
 80487ec:	83 ec 08             	sub    $0x8,%esp
 80487ef:	e8 7c ff ff ff       	call   8048770 <deregister_tm_clones>
 80487f4:	c6 05 0c a8 04 08 01 	movb   $0x1,0x804a80c
 80487fb:	c9                   	leave  
 80487fc:	f3 c3                	repz ret 
 80487fe:	66 90                	xchg   %ax,%ax

08048800 <frame_dummy>:
 8048800:	b8 b4 a5 04 08       	mov    $0x804a5b4,%eax
 8048805:	8b 10                	mov    (%eax),%edx
 8048807:	85 d2                	test   %edx,%edx
 8048809:	75 05                	jne    8048810 <frame_dummy+0x10>
 804880b:	eb 93                	jmp    80487a0 <register_tm_clones>
 804880d:	8d 76 00             	lea    0x0(%esi),%esi
 8048810:	ba 00 00 00 00       	mov    $0x0,%edx
 8048815:	85 d2                	test   %edx,%edx
 8048817:	74 f2                	je     804880b <frame_dummy+0xb>
 8048819:	55                   	push   %ebp
 804881a:	89 e5                	mov    %esp,%ebp
 804881c:	83 ec 14             	sub    $0x14,%esp
 804881f:	50                   	push   %eax
 8048820:	ff d2                	call   *%edx
 8048822:	83 c4 10             	add    $0x10,%esp
 8048825:	c9                   	leave  
 8048826:	e9 75 ff ff ff       	jmp    80487a0 <register_tm_clones>

0804882b <main>:
 804882b:	8d 4c 24 04          	lea    0x4(%esp),%ecx
 804882f:	83 e4 f0             	and    $0xfffffff0,%esp
 8048832:	ff 71 fc             	pushl  -0x4(%ecx)
 8048835:	55                   	push   %ebp
 8048836:	89 e5                	mov    %esp,%ebp
 8048838:	53                   	push   %ebx
 8048839:	51                   	push   %ecx
 804883a:	83 ec 30             	sub    $0x30,%esp
 804883d:	c7 45 f4 00 00 00 00 	movl   $0x0,-0xc(%ebp)
 8048844:	83 ec 08             	sub    $0x8,%esp
 8048847:	68 cc 90 04 08       	push   $0x80490cc
 804884c:	68 40 a7 04 08       	push   $0x804a740
 8048851:	e8 8a fe ff ff       	call   80486e0 <_ZStlsISt11char_traitsIcEERSt13basic_ostreamIcT_ES5_PKc@plt>
 8048856:	83 c4 10             	add    $0x10,%esp
 8048859:	83 ec 08             	sub    $0x8,%esp
 804885c:	68 00 87 04 08       	push   $0x8048700
 8048861:	50                   	push   %eax
 8048862:	e8 89 fe ff ff       	call   80486f0 <_ZNSolsEPFRSoS_E@plt>
 8048867:	83 c4 10             	add    $0x10,%esp
 804886a:	83 ec 0c             	sub    $0xc,%esp
 804886d:	8d 45 ec             	lea    -0x14(%ebp),%eax
 8048870:	50                   	push   %eax
 8048871:	e8 5e 02 00 00       	call   8048ad4 <_ZN10base_classC1Ev>
 8048876:	83 c4 10             	add    $0x10,%esp
 8048879:	83 ec 08             	sub    $0x8,%esp
 804887c:	68 cc 90 04 08       	push   $0x80490cc
 8048881:	68 40 a7 04 08       	push   $0x804a740
 8048886:	e8 55 fe ff ff       	call   80486e0 <_ZStlsISt11char_traitsIcEERSt13basic_ostreamIcT_ES5_PKc@plt>
 804888b:	83 c4 10             	add    $0x10,%esp
 804888e:	83 ec 08             	sub    $0x8,%esp
 8048891:	68 00 87 04 08       	push   $0x8048700
 8048896:	50                   	push   %eax
 8048897:	e8 54 fe ff ff       	call   80486f0 <_ZNSolsEPFRSoS_E@plt>
 804889c:	83 c4 10             	add    $0x10,%esp
 804889f:	83 ec 0c             	sub    $0xc,%esp
 80488a2:	8d 45 e0             	lea    -0x20(%ebp),%eax
 80488a5:	50                   	push   %eax
 80488a6:	e8 4f 03 00 00       	call   8048bfa <_ZN13drived_class1C1Ev>
 80488ab:	83 c4 10             	add    $0x10,%esp
 80488ae:	83 ec 08             	sub    $0x8,%esp
 80488b1:	68 cc 90 04 08       	push   $0x80490cc
 80488b6:	68 40 a7 04 08       	push   $0x804a740
 80488bb:	e8 20 fe ff ff       	call   80486e0 <_ZStlsISt11char_traitsIcEERSt13basic_ostreamIcT_ES5_PKc@plt>
 80488c0:	83 c4 10             	add    $0x10,%esp
 80488c3:	83 ec 08             	sub    $0x8,%esp
 80488c6:	68 00 87 04 08       	push   $0x8048700
 80488cb:	50                   	push   %eax
 80488cc:	e8 1f fe ff ff       	call   80486f0 <_ZNSolsEPFRSoS_E@plt>
 80488d1:	83 c4 10             	add    $0x10,%esp
 80488d4:	83 ec 0c             	sub    $0xc,%esp
 80488d7:	8d 45 d4             	lea    -0x2c(%ebp),%eax
 80488da:	50                   	push   %eax
 80488db:	e8 6e 04 00 00       	call   8048d4e <_ZN13drived_class2C1Ev>
 80488e0:	83 c4 10             	add    $0x10,%esp
 80488e3:	83 ec 08             	sub    $0x8,%esp
 80488e6:	68 cc 90 04 08       	push   $0x80490cc
 80488eb:	68 40 a7 04 08       	push   $0x804a740
 80488f0:	e8 eb fd ff ff       	call   80486e0 <_ZStlsISt11char_traitsIcEERSt13basic_ostreamIcT_ES5_PKc@plt>
 80488f5:	83 c4 10             	add    $0x10,%esp
 80488f8:	83 ec 08             	sub    $0x8,%esp
 80488fb:	68 00 87 04 08       	push   $0x8048700
 8048900:	50                   	push   %eax
 8048901:	e8 ea fd ff ff       	call   80486f0 <_ZNSolsEPFRSoS_E@plt>
 8048906:	83 c4 10             	add    $0x10,%esp
 8048909:	8d 45 ec             	lea    -0x14(%ebp),%eax
 804890c:	89 45 f4             	mov    %eax,-0xc(%ebp)
 804890f:	83 ec 0c             	sub    $0xc,%esp
 8048912:	ff 75 f4             	pushl  -0xc(%ebp)
 8048915:	e8 78 02 00 00       	call   8048b92 <_ZN10base_class11normal_funcEv>
 804891a:	83 c4 10             	add    $0x10,%esp
 804891d:	8b 45 f4             	mov    -0xc(%ebp),%eax
 8048920:	8b 00                	mov    (%eax),%eax
 8048922:	83 c0 08             	add    $0x8,%eax
 8048925:	8b 00                	mov    (%eax),%eax
 8048927:	83 ec 0c             	sub    $0xc,%esp
 804892a:	ff 75 f4             	pushl  -0xc(%ebp)
 804892d:	ff d0                	call   *%eax
 804892f:	83 c4 10             	add    $0x10,%esp
 8048932:	83 ec 08             	sub    $0x8,%esp
 8048935:	68 cc 90 04 08       	push   $0x80490cc
 804893a:	68 40 a7 04 08       	push   $0x804a740
 804893f:	e8 9c fd ff ff       	call   80486e0 <_ZStlsISt11char_traitsIcEERSt13basic_ostreamIcT_ES5_PKc@plt>
 8048944:	83 c4 10             	add    $0x10,%esp
 8048947:	83 ec 08             	sub    $0x8,%esp
 804894a:	68 00 87 04 08       	push   $0x8048700
 804894f:	50                   	push   %eax
 8048950:	e8 9b fd ff ff       	call   80486f0 <_ZNSolsEPFRSoS_E@plt>
 8048955:	83 c4 10             	add    $0x10,%esp
 8048958:	8d 45 e0             	lea    -0x20(%ebp),%eax
 804895b:	89 45 f4             	mov    %eax,-0xc(%ebp)
 804895e:	83 ec 0c             	sub    $0xc,%esp
 8048961:	ff 75 f4             	pushl  -0xc(%ebp)
 8048964:	e8 29 02 00 00       	call   8048b92 <_ZN10base_class11normal_funcEv>
 8048969:	83 c4 10             	add    $0x10,%esp
 804896c:	8b 45 f4             	mov    -0xc(%ebp),%eax
 804896f:	8b 00                	mov    (%eax),%eax
 8048971:	83 c0 08             	add    $0x8,%eax
 8048974:	8b 00                	mov    (%eax),%eax
 8048976:	83 ec 0c             	sub    $0xc,%esp
 8048979:	ff 75 f4             	pushl  -0xc(%ebp)
 804897c:	ff d0                	call   *%eax
 804897e:	83 c4 10             	add    $0x10,%esp
 8048981:	83 ec 08             	sub    $0x8,%esp
 8048984:	68 cc 90 04 08       	push   $0x80490cc
 8048989:	68 40 a7 04 08       	push   $0x804a740
 804898e:	e8 4d fd ff ff       	call   80486e0 <_ZStlsISt11char_traitsIcEERSt13basic_ostreamIcT_ES5_PKc@plt>
 8048993:	83 c4 10             	add    $0x10,%esp
 8048996:	83 ec 08             	sub    $0x8,%esp
 8048999:	68 00 87 04 08       	push   $0x8048700
 804899e:	50                   	push   %eax
 804899f:	e8 4c fd ff ff       	call   80486f0 <_ZNSolsEPFRSoS_E@plt>
 80489a4:	83 c4 10             	add    $0x10,%esp
 80489a7:	8d 45 d4             	lea    -0x2c(%ebp),%eax
 80489aa:	89 45 f4             	mov    %eax,-0xc(%ebp)
 80489ad:	83 ec 0c             	sub    $0xc,%esp
 80489b0:	ff 75 f4             	pushl  -0xc(%ebp)
 80489b3:	e8 da 01 00 00       	call   8048b92 <_ZN10base_class11normal_funcEv>
 80489b8:	83 c4 10             	add    $0x10,%esp
 80489bb:	8b 45 f4             	mov    -0xc(%ebp),%eax
 80489be:	8b 00                	mov    (%eax),%eax
 80489c0:	83 c0 08             	add    $0x8,%eax
 80489c3:	8b 00                	mov    (%eax),%eax
 80489c5:	83 ec 0c             	sub    $0xc,%esp
 80489c8:	ff 75 f4             	pushl  -0xc(%ebp)
 80489cb:	ff d0                	call   *%eax
 80489cd:	83 c4 10             	add    $0x10,%esp
 80489d0:	83 ec 08             	sub    $0x8,%esp
 80489d3:	68 cc 90 04 08       	push   $0x80490cc
 80489d8:	68 40 a7 04 08       	push   $0x804a740
 80489dd:	e8 fe fc ff ff       	call   80486e0 <_ZStlsISt11char_traitsIcEERSt13basic_ostreamIcT_ES5_PKc@plt>
 80489e2:	83 c4 10             	add    $0x10,%esp
 80489e5:	83 ec 08             	sub    $0x8,%esp
 80489e8:	68 00 87 04 08       	push   $0x8048700
 80489ed:	50                   	push   %eax
 80489ee:	e8 fd fc ff ff       	call   80486f0 <_ZNSolsEPFRSoS_E@plt>
 80489f3:	83 c4 10             	add    $0x10,%esp
 80489f6:	bb 00 00 00 00       	mov    $0x0,%ebx
 80489fb:	83 ec 0c             	sub    $0xc,%esp
 80489fe:	8d 45 d4             	lea    -0x2c(%ebp),%eax
 8048a01:	50                   	push   %eax
 8048a02:	e8 b9 03 00 00       	call   8048dc0 <_ZN13drived_class2D1Ev>
 8048a07:	83 c4 10             	add    $0x10,%esp
 8048a0a:	83 ec 0c             	sub    $0xc,%esp
 8048a0d:	8d 45 e0             	lea    -0x20(%ebp),%eax
 8048a10:	50                   	push   %eax
 8048a11:	e8 56 02 00 00       	call   8048c6c <_ZN13drived_class1D1Ev>
 8048a16:	83 c4 10             	add    $0x10,%esp
 8048a19:	83 ec 0c             	sub    $0xc,%esp
 8048a1c:	8d 45 ec             	lea    -0x14(%ebp),%eax
 8048a1f:	50                   	push   %eax
 8048a20:	e8 f1 00 00 00       	call   8048b16 <_ZN10base_classD1Ev>
 8048a25:	83 c4 10             	add    $0x10,%esp
 8048a28:	89 d8                	mov    %ebx,%eax
 8048a2a:	eb 42                	jmp    8048a6e <main+0x243>
 8048a2c:	89 c3                	mov    %eax,%ebx
 8048a2e:	83 ec 0c             	sub    $0xc,%esp
 8048a31:	8d 45 d4             	lea    -0x2c(%ebp),%eax
 8048a34:	50                   	push   %eax
 8048a35:	e8 86 03 00 00       	call   8048dc0 <_ZN13drived_class2D1Ev>
 8048a3a:	83 c4 10             	add    $0x10,%esp
 8048a3d:	eb 02                	jmp    8048a41 <main+0x216>
 8048a3f:	89 c3                	mov    %eax,%ebx
 8048a41:	83 ec 0c             	sub    $0xc,%esp
 8048a44:	8d 45 e0             	lea    -0x20(%ebp),%eax
 8048a47:	50                   	push   %eax
 8048a48:	e8 1f 02 00 00       	call   8048c6c <_ZN13drived_class1D1Ev>
 8048a4d:	83 c4 10             	add    $0x10,%esp
 8048a50:	eb 02                	jmp    8048a54 <main+0x229>
 8048a52:	89 c3                	mov    %eax,%ebx
 8048a54:	83 ec 0c             	sub    $0xc,%esp
 8048a57:	8d 45 ec             	lea    -0x14(%ebp),%eax
 8048a5a:	50                   	push   %eax
 8048a5b:	e8 b6 00 00 00       	call   8048b16 <_ZN10base_classD1Ev>
 8048a60:	83 c4 10             	add    $0x10,%esp
 8048a63:	89 d8                	mov    %ebx,%eax
 8048a65:	83 ec 0c             	sub    $0xc,%esp
 8048a68:	50                   	push   %eax
 8048a69:	e8 b2 fc ff ff       	call   8048720 <_Unwind_Resume@plt>
 8048a6e:	8d 65 f8             	lea    -0x8(%ebp),%esp
 8048a71:	59                   	pop    %ecx
 8048a72:	5b                   	pop    %ebx
 8048a73:	5d                   	pop    %ebp
 8048a74:	8d 61 fc             	lea    -0x4(%ecx),%esp
 8048a77:	c3                   	ret    

08048a78 <_Z41__static_initialization_and_destruction_0ii>:
 8048a78:	55                   	push   %ebp
 8048a79:	89 e5                	mov    %esp,%ebp
 8048a7b:	83 ec 08             	sub    $0x8,%esp
 8048a7e:	83 7d 08 01          	cmpl   $0x1,0x8(%ebp)
 8048a82:	75 33                	jne    8048ab7 <_Z41__static_initialization_and_destruction_0ii+0x3f>
 8048a84:	81 7d 0c ff ff 00 00 	cmpl   $0xffff,0xc(%ebp)
 8048a8b:	75 2a                	jne    8048ab7 <_Z41__static_initialization_and_destruction_0ii+0x3f>
 8048a8d:	83 ec 0c             	sub    $0xc,%esp
 8048a90:	68 0d a8 04 08       	push   $0x804a80d
 8048a95:	e8 16 fc ff ff       	call   80486b0 <_ZNSt8ios_base4InitC1Ev@plt>
 8048a9a:	83 c4 10             	add    $0x10,%esp
 8048a9d:	83 ec 04             	sub    $0x4,%esp
 8048aa0:	68 f8 a6 04 08       	push   $0x804a6f8
 8048aa5:	68 0d a8 04 08       	push   $0x804a80d
 8048aaa:	68 d0 86 04 08       	push   $0x80486d0
 8048aaf:	e8 cc fb ff ff       	call   8048680 <__cxa_atexit@plt>
 8048ab4:	83 c4 10             	add    $0x10,%esp
 8048ab7:	c9                   	leave  
 8048ab8:	c3                   	ret    

08048ab9 <_GLOBAL__sub_I_main>:
 8048ab9:	55                   	push   %ebp
 8048aba:	89 e5                	mov    %esp,%ebp
 8048abc:	83 ec 08             	sub    $0x8,%esp
 8048abf:	83 ec 08             	sub    $0x8,%esp
 8048ac2:	68 ff ff 00 00       	push   $0xffff
 8048ac7:	6a 01                	push   $0x1
 8048ac9:	e8 aa ff ff ff       	call   8048a78 <_Z41__static_initialization_and_destruction_0ii>
 8048ace:	83 c4 10             	add    $0x10,%esp
 8048ad1:	c9                   	leave  
 8048ad2:	c3                   	ret    
 8048ad3:	90                   	nop

08048ad4 <_ZN10base_classC1Ev>:
 8048ad4:	55                   	push   %ebp
 8048ad5:	89 e5                	mov    %esp,%ebp
 8048ad7:	83 ec 08             	sub    $0x8,%esp
 8048ada:	8b 45 08             	mov    0x8(%ebp),%eax
 8048add:	c7 00 38 91 04 08    	movl   $0x8049138,(%eax)
 8048ae3:	8b 45 08             	mov    0x8(%ebp),%eax
 8048ae6:	c7 40 04 64 00 00 00 	movl   $0x64,0x4(%eax)
 8048aed:	83 ec 08             	sub    $0x8,%esp
 8048af0:	68 40 8f 04 08       	push   $0x8048f40
 8048af5:	68 40 a7 04 08       	push   $0x804a740
 8048afa:	e8 e1 fb ff ff       	call   80486e0 <_ZStlsISt11char_traitsIcEERSt13basic_ostreamIcT_ES5_PKc@plt>
 8048aff:	83 c4 10             	add    $0x10,%esp
 8048b02:	83 ec 08             	sub    $0x8,%esp
 8048b05:	68 00 87 04 08       	push   $0x8048700
 8048b0a:	50                   	push   %eax
 8048b0b:	e8 e0 fb ff ff       	call   80486f0 <_ZNSolsEPFRSoS_E@plt>
 8048b10:	83 c4 10             	add    $0x10,%esp
 8048b13:	c9                   	leave  
 8048b14:	c3                   	ret    
 8048b15:	90                   	nop

08048b16 <_ZN10base_classD1Ev>:
 8048b16:	55                   	push   %ebp
 8048b17:	89 e5                	mov    %esp,%ebp
 8048b19:	83 ec 08             	sub    $0x8,%esp
 8048b1c:	8b 45 08             	mov    0x8(%ebp),%eax
 8048b1f:	c7 00 38 91 04 08    	movl   $0x8049138,(%eax)
 8048b25:	8b 45 08             	mov    0x8(%ebp),%eax
 8048b28:	c7 40 04 9c ff ff ff 	movl   $0xffffff9c,0x4(%eax)
 8048b2f:	83 ec 08             	sub    $0x8,%esp
 8048b32:	68 64 8f 04 08       	push   $0x8048f64
 8048b37:	68 40 a7 04 08       	push   $0x804a740
 8048b3c:	e8 9f fb ff ff       	call   80486e0 <_ZStlsISt11char_traitsIcEERSt13basic_ostreamIcT_ES5_PKc@plt>
 8048b41:	83 c4 10             	add    $0x10,%esp
 8048b44:	83 ec 08             	sub    $0x8,%esp
 8048b47:	68 00 87 04 08       	push   $0x8048700
 8048b4c:	50                   	push   %eax
 8048b4d:	e8 9e fb ff ff       	call   80486f0 <_ZNSolsEPFRSoS_E@plt>
 8048b52:	83 c4 10             	add    $0x10,%esp
 8048b55:	b8 00 00 00 00       	mov    $0x0,%eax
 8048b5a:	85 c0                	test   %eax,%eax
 8048b5c:	74 0e                	je     8048b6c <_ZN10base_classD1Ev+0x56>
 8048b5e:	83 ec 0c             	sub    $0xc,%esp
 8048b61:	ff 75 08             	pushl  0x8(%ebp)
 8048b64:	e8 37 fb ff ff       	call   80486a0 <_ZdlPv@plt>
 8048b69:	83 c4 10             	add    $0x10,%esp
 8048b6c:	c9                   	leave  
 8048b6d:	c3                   	ret    

08048b6e <_ZN10base_classD0Ev>:
 8048b6e:	55                   	push   %ebp
 8048b6f:	89 e5                	mov    %esp,%ebp
 8048b71:	83 ec 08             	sub    $0x8,%esp
 8048b74:	83 ec 0c             	sub    $0xc,%esp
 8048b77:	ff 75 08             	pushl  0x8(%ebp)
 8048b7a:	e8 97 ff ff ff       	call   8048b16 <_ZN10base_classD1Ev>
 8048b7f:	83 c4 10             	add    $0x10,%esp
 8048b82:	83 ec 0c             	sub    $0xc,%esp
 8048b85:	ff 75 08             	pushl  0x8(%ebp)
 8048b88:	e8 13 fb ff ff       	call   80486a0 <_ZdlPv@plt>
 8048b8d:	83 c4 10             	add    $0x10,%esp
 8048b90:	c9                   	leave  
 8048b91:	c3                   	ret    

08048b92 <_ZN10base_class11normal_funcEv>:
 8048b92:	55                   	push   %ebp
 8048b93:	89 e5                	mov    %esp,%ebp
 8048b95:	83 ec 08             	sub    $0x8,%esp
 8048b98:	83 ec 08             	sub    $0x8,%esp
 8048b9b:	68 8c 8f 04 08       	push   $0x8048f8c
 8048ba0:	68 40 a7 04 08       	push   $0x804a740
 8048ba5:	e8 36 fb ff ff       	call   80486e0 <_ZStlsISt11char_traitsIcEERSt13basic_ostreamIcT_ES5_PKc@plt>
 8048baa:	83 c4 10             	add    $0x10,%esp
 8048bad:	83 ec 08             	sub    $0x8,%esp
 8048bb0:	68 00 87 04 08       	push   $0x8048700
 8048bb5:	50                   	push   %eax
 8048bb6:	e8 35 fb ff ff       	call   80486f0 <_ZNSolsEPFRSoS_E@plt>
 8048bbb:	83 c4 10             	add    $0x10,%esp
 8048bbe:	b8 00 00 00 00       	mov    $0x0,%eax
 8048bc3:	c9                   	leave  
 8048bc4:	c3                   	ret    
 8048bc5:	90                   	nop

08048bc6 <_ZN10base_class11virtual_fucEv>:
 8048bc6:	55                   	push   %ebp
 8048bc7:	89 e5                	mov    %esp,%ebp
 8048bc9:	83 ec 08             	sub    $0x8,%esp
 8048bcc:	83 ec 08             	sub    $0x8,%esp
 8048bcf:	68 b0 8f 04 08       	push   $0x8048fb0
 8048bd4:	68 40 a7 04 08       	push   $0x804a740
 8048bd9:	e8 02 fb ff ff       	call   80486e0 <_ZStlsISt11char_traitsIcEERSt13basic_ostreamIcT_ES5_PKc@plt>
 8048bde:	83 c4 10             	add    $0x10,%esp
 8048be1:	83 ec 08             	sub    $0x8,%esp
 8048be4:	68 00 87 04 08       	push   $0x8048700
 8048be9:	50                   	push   %eax
 8048bea:	e8 01 fb ff ff       	call   80486f0 <_ZNSolsEPFRSoS_E@plt>
 8048bef:	83 c4 10             	add    $0x10,%esp
 8048bf2:	b8 00 00 00 00       	mov    $0x0,%eax
 8048bf7:	c9                   	leave  
 8048bf8:	c3                   	ret    
 8048bf9:	90                   	nop

08048bfa <_ZN13drived_class1C1Ev>:
 8048bfa:	55                   	push   %ebp
 8048bfb:	89 e5                	mov    %esp,%ebp
 8048bfd:	53                   	push   %ebx
 8048bfe:	83 ec 04             	sub    $0x4,%esp
 8048c01:	8b 45 08             	mov    0x8(%ebp),%eax
 8048c04:	83 ec 0c             	sub    $0xc,%esp
 8048c07:	50                   	push   %eax
 8048c08:	e8 c7 fe ff ff       	call   8048ad4 <_ZN10base_classC1Ev>
 8048c0d:	83 c4 10             	add    $0x10,%esp
 8048c10:	8b 45 08             	mov    0x8(%ebp),%eax
 8048c13:	c7 00 20 91 04 08    	movl   $0x8049120,(%eax)
 8048c19:	8b 45 08             	mov    0x8(%ebp),%eax
 8048c1c:	c7 40 08 c8 00 00 00 	movl   $0xc8,0x8(%eax)
 8048c23:	83 ec 08             	sub    $0x8,%esp
 8048c26:	68 d4 8f 04 08       	push   $0x8048fd4
 8048c2b:	68 40 a7 04 08       	push   $0x804a740
 8048c30:	e8 ab fa ff ff       	call   80486e0 <_ZStlsISt11char_traitsIcEERSt13basic_ostreamIcT_ES5_PKc@plt>
 8048c35:	83 c4 10             	add    $0x10,%esp
 8048c38:	83 ec 08             	sub    $0x8,%esp
 8048c3b:	68 00 87 04 08       	push   $0x8048700
 8048c40:	50                   	push   %eax
 8048c41:	e8 aa fa ff ff       	call   80486f0 <_ZNSolsEPFRSoS_E@plt>
 8048c46:	83 c4 10             	add    $0x10,%esp
 8048c49:	eb 1c                	jmp    8048c67 <_ZN13drived_class1C1Ev+0x6d>
 8048c4b:	89 c3                	mov    %eax,%ebx
 8048c4d:	8b 45 08             	mov    0x8(%ebp),%eax
 8048c50:	83 ec 0c             	sub    $0xc,%esp
 8048c53:	50                   	push   %eax
 8048c54:	e8 bd fe ff ff       	call   8048b16 <_ZN10base_classD1Ev>
 8048c59:	83 c4 10             	add    $0x10,%esp
 8048c5c:	89 d8                	mov    %ebx,%eax
 8048c5e:	83 ec 0c             	sub    $0xc,%esp
 8048c61:	50                   	push   %eax
 8048c62:	e8 b9 fa ff ff       	call   8048720 <_Unwind_Resume@plt>
 8048c67:	8b 5d fc             	mov    -0x4(%ebp),%ebx
 8048c6a:	c9                   	leave  
 8048c6b:	c3                   	ret    

08048c6c <_ZN13drived_class1D1Ev>:
 8048c6c:	55                   	push   %ebp
 8048c6d:	89 e5                	mov    %esp,%ebp
 8048c6f:	53                   	push   %ebx
 8048c70:	83 ec 04             	sub    $0x4,%esp
 8048c73:	8b 45 08             	mov    0x8(%ebp),%eax
 8048c76:	c7 00 20 91 04 08    	movl   $0x8049120,(%eax)
 8048c7c:	8b 45 08             	mov    0x8(%ebp),%eax
 8048c7f:	c7 40 08 38 ff ff ff 	movl   $0xffffff38,0x8(%eax)
 8048c86:	83 ec 08             	sub    $0x8,%esp
 8048c89:	68 fc 8f 04 08       	push   $0x8048ffc
 8048c8e:	68 40 a7 04 08       	push   $0x804a740
 8048c93:	e8 48 fa ff ff       	call   80486e0 <_ZStlsISt11char_traitsIcEERSt13basic_ostreamIcT_ES5_PKc@plt>
 8048c98:	83 c4 10             	add    $0x10,%esp
 8048c9b:	83 ec 08             	sub    $0x8,%esp
 8048c9e:	68 00 87 04 08       	push   $0x8048700
 8048ca3:	50                   	push   %eax
 8048ca4:	e8 47 fa ff ff       	call   80486f0 <_ZNSolsEPFRSoS_E@plt>
 8048ca9:	83 c4 10             	add    $0x10,%esp
 8048cac:	8b 45 08             	mov    0x8(%ebp),%eax
 8048caf:	83 ec 0c             	sub    $0xc,%esp
 8048cb2:	50                   	push   %eax
 8048cb3:	e8 5e fe ff ff       	call   8048b16 <_ZN10base_classD1Ev>
 8048cb8:	83 c4 10             	add    $0x10,%esp
 8048cbb:	b8 00 00 00 00       	mov    $0x0,%eax
 8048cc0:	85 c0                	test   %eax,%eax
 8048cc2:	74 2c                	je     8048cf0 <_ZN13drived_class1D1Ev+0x84>
 8048cc4:	83 ec 0c             	sub    $0xc,%esp
 8048cc7:	ff 75 08             	pushl  0x8(%ebp)
 8048cca:	e8 d1 f9 ff ff       	call   80486a0 <_ZdlPv@plt>
 8048ccf:	83 c4 10             	add    $0x10,%esp
 8048cd2:	eb 1c                	jmp    8048cf0 <_ZN13drived_class1D1Ev+0x84>
 8048cd4:	89 c3                	mov    %eax,%ebx
 8048cd6:	8b 45 08             	mov    0x8(%ebp),%eax
 8048cd9:	83 ec 0c             	sub    $0xc,%esp
 8048cdc:	50                   	push   %eax
 8048cdd:	e8 34 fe ff ff       	call   8048b16 <_ZN10base_classD1Ev>
 8048ce2:	83 c4 10             	add    $0x10,%esp
 8048ce5:	89 d8                	mov    %ebx,%eax
 8048ce7:	83 ec 0c             	sub    $0xc,%esp
 8048cea:	50                   	push   %eax
 8048ceb:	e8 30 fa ff ff       	call   8048720 <_Unwind_Resume@plt>
 8048cf0:	8b 5d fc             	mov    -0x4(%ebp),%ebx
 8048cf3:	c9                   	leave  
 8048cf4:	c3                   	ret    
 8048cf5:	90                   	nop

08048cf6 <_ZN13drived_class1D0Ev>:
 8048cf6:	55                   	push   %ebp
 8048cf7:	89 e5                	mov    %esp,%ebp
 8048cf9:	83 ec 08             	sub    $0x8,%esp
 8048cfc:	83 ec 0c             	sub    $0xc,%esp
 8048cff:	ff 75 08             	pushl  0x8(%ebp)
 8048d02:	e8 65 ff ff ff       	call   8048c6c <_ZN13drived_class1D1Ev>
 8048d07:	83 c4 10             	add    $0x10,%esp
 8048d0a:	83 ec 0c             	sub    $0xc,%esp
 8048d0d:	ff 75 08             	pushl  0x8(%ebp)
 8048d10:	e8 8b f9 ff ff       	call   80486a0 <_ZdlPv@plt>
 8048d15:	83 c4 10             	add    $0x10,%esp
 8048d18:	c9                   	leave  
 8048d19:	c3                   	ret    

08048d1a <_ZN13drived_class111virtual_fucEv>:
 8048d1a:	55                   	push   %ebp
 8048d1b:	89 e5                	mov    %esp,%ebp
 8048d1d:	83 ec 08             	sub    $0x8,%esp
 8048d20:	83 ec 08             	sub    $0x8,%esp
 8048d23:	68 28 90 04 08       	push   $0x8049028
 8048d28:	68 40 a7 04 08       	push   $0x804a740
 8048d2d:	e8 ae f9 ff ff       	call   80486e0 <_ZStlsISt11char_traitsIcEERSt13basic_ostreamIcT_ES5_PKc@plt>
 8048d32:	83 c4 10             	add    $0x10,%esp
 8048d35:	83 ec 08             	sub    $0x8,%esp
 8048d38:	68 00 87 04 08       	push   $0x8048700
 8048d3d:	50                   	push   %eax
 8048d3e:	e8 ad f9 ff ff       	call   80486f0 <_ZNSolsEPFRSoS_E@plt>
 8048d43:	83 c4 10             	add    $0x10,%esp
 8048d46:	b8 00 00 00 00       	mov    $0x0,%eax
 8048d4b:	c9                   	leave  
 8048d4c:	c3                   	ret    
 8048d4d:	90                   	nop

08048d4e <_ZN13drived_class2C1Ev>:
 8048d4e:	55                   	push   %ebp
 8048d4f:	89 e5                	mov    %esp,%ebp
 8048d51:	53                   	push   %ebx
 8048d52:	83 ec 04             	sub    $0x4,%esp
 8048d55:	8b 45 08             	mov    0x8(%ebp),%eax
 8048d58:	83 ec 0c             	sub    $0xc,%esp
 8048d5b:	50                   	push   %eax
 8048d5c:	e8 73 fd ff ff       	call   8048ad4 <_ZN10base_classC1Ev>
 8048d61:	83 c4 10             	add    $0x10,%esp
 8048d64:	8b 45 08             	mov    0x8(%ebp),%eax
 8048d67:	c7 00 08 91 04 08    	movl   $0x8049108,(%eax)
 8048d6d:	8b 45 08             	mov    0x8(%ebp),%eax
 8048d70:	c7 40 08 2c 01 00 00 	movl   $0x12c,0x8(%eax)
 8048d77:	83 ec 08             	sub    $0x8,%esp
 8048d7a:	68 50 90 04 08       	push   $0x8049050
 8048d7f:	68 40 a7 04 08       	push   $0x804a740
 8048d84:	e8 57 f9 ff ff       	call   80486e0 <_ZStlsISt11char_traitsIcEERSt13basic_ostreamIcT_ES5_PKc@plt>
 8048d89:	83 c4 10             	add    $0x10,%esp
 8048d8c:	83 ec 08             	sub    $0x8,%esp
 8048d8f:	68 00 87 04 08       	push   $0x8048700
 8048d94:	50                   	push   %eax
 8048d95:	e8 56 f9 ff ff       	call   80486f0 <_ZNSolsEPFRSoS_E@plt>
 8048d9a:	83 c4 10             	add    $0x10,%esp
 8048d9d:	eb 1c                	jmp    8048dbb <_ZN13drived_class2C1Ev+0x6d>
 8048d9f:	89 c3                	mov    %eax,%ebx
 8048da1:	8b 45 08             	mov    0x8(%ebp),%eax
 8048da4:	83 ec 0c             	sub    $0xc,%esp
 8048da7:	50                   	push   %eax
 8048da8:	e8 69 fd ff ff       	call   8048b16 <_ZN10base_classD1Ev>
 8048dad:	83 c4 10             	add    $0x10,%esp
 8048db0:	89 d8                	mov    %ebx,%eax
 8048db2:	83 ec 0c             	sub    $0xc,%esp
 8048db5:	50                   	push   %eax
 8048db6:	e8 65 f9 ff ff       	call   8048720 <_Unwind_Resume@plt>
 8048dbb:	8b 5d fc             	mov    -0x4(%ebp),%ebx
 8048dbe:	c9                   	leave  
 8048dbf:	c3                   	ret    

08048dc0 <_ZN13drived_class2D1Ev>:
 8048dc0:	55                   	push   %ebp
 8048dc1:	89 e5                	mov    %esp,%ebp
 8048dc3:	53                   	push   %ebx
 8048dc4:	83 ec 04             	sub    $0x4,%esp
 8048dc7:	8b 45 08             	mov    0x8(%ebp),%eax
 8048dca:	c7 00 08 91 04 08    	movl   $0x8049108,(%eax)
 8048dd0:	8b 45 08             	mov    0x8(%ebp),%eax
 8048dd3:	c7 40 08 d4 fe ff ff 	movl   $0xfffffed4,0x8(%eax)
 8048dda:	83 ec 08             	sub    $0x8,%esp
 8048ddd:	68 78 90 04 08       	push   $0x8049078
 8048de2:	68 40 a7 04 08       	push   $0x804a740
 8048de7:	e8 f4 f8 ff ff       	call   80486e0 <_ZStlsISt11char_traitsIcEERSt13basic_ostreamIcT_ES5_PKc@plt>
 8048dec:	83 c4 10             	add    $0x10,%esp
 8048def:	83 ec 08             	sub    $0x8,%esp
 8048df2:	68 00 87 04 08       	push   $0x8048700
 8048df7:	50                   	push   %eax
 8048df8:	e8 f3 f8 ff ff       	call   80486f0 <_ZNSolsEPFRSoS_E@plt>
 8048dfd:	83 c4 10             	add    $0x10,%esp
 8048e00:	8b 45 08             	mov    0x8(%ebp),%eax
 8048e03:	83 ec 0c             	sub    $0xc,%esp
 8048e06:	50                   	push   %eax
 8048e07:	e8 0a fd ff ff       	call   8048b16 <_ZN10base_classD1Ev>
 8048e0c:	83 c4 10             	add    $0x10,%esp
 8048e0f:	b8 00 00 00 00       	mov    $0x0,%eax
 8048e14:	85 c0                	test   %eax,%eax
 8048e16:	74 2c                	je     8048e44 <_ZN13drived_class2D1Ev+0x84>
 8048e18:	83 ec 0c             	sub    $0xc,%esp
 8048e1b:	ff 75 08             	pushl  0x8(%ebp)
 8048e1e:	e8 7d f8 ff ff       	call   80486a0 <_ZdlPv@plt>
 8048e23:	83 c4 10             	add    $0x10,%esp
 8048e26:	eb 1c                	jmp    8048e44 <_ZN13drived_class2D1Ev+0x84>
 8048e28:	89 c3                	mov    %eax,%ebx
 8048e2a:	8b 45 08             	mov    0x8(%ebp),%eax
 8048e2d:	83 ec 0c             	sub    $0xc,%esp
 8048e30:	50                   	push   %eax
 8048e31:	e8 e0 fc ff ff       	call   8048b16 <_ZN10base_classD1Ev>
 8048e36:	83 c4 10             	add    $0x10,%esp
 8048e39:	89 d8                	mov    %ebx,%eax
 8048e3b:	83 ec 0c             	sub    $0xc,%esp
 8048e3e:	50                   	push   %eax
 8048e3f:	e8 dc f8 ff ff       	call   8048720 <_Unwind_Resume@plt>
 8048e44:	8b 5d fc             	mov    -0x4(%ebp),%ebx
 8048e47:	c9                   	leave  
 8048e48:	c3                   	ret    
 8048e49:	90                   	nop

08048e4a <_ZN13drived_class2D0Ev>:
 8048e4a:	55                   	push   %ebp
 8048e4b:	89 e5                	mov    %esp,%ebp
 8048e4d:	83 ec 08             	sub    $0x8,%esp
 8048e50:	83 ec 0c             	sub    $0xc,%esp
 8048e53:	ff 75 08             	pushl  0x8(%ebp)
 8048e56:	e8 65 ff ff ff       	call   8048dc0 <_ZN13drived_class2D1Ev>
 8048e5b:	83 c4 10             	add    $0x10,%esp
 8048e5e:	83 ec 0c             	sub    $0xc,%esp
 8048e61:	ff 75 08             	pushl  0x8(%ebp)
 8048e64:	e8 37 f8 ff ff       	call   80486a0 <_ZdlPv@plt>
 8048e69:	83 c4 10             	add    $0x10,%esp
 8048e6c:	c9                   	leave  
 8048e6d:	c3                   	ret    

08048e6e <_ZN13drived_class211virtual_fucEv>:
 8048e6e:	55                   	push   %ebp
 8048e6f:	89 e5                	mov    %esp,%ebp
 8048e71:	83 ec 08             	sub    $0x8,%esp
 8048e74:	83 ec 08             	sub    $0x8,%esp
 8048e77:	68 a4 90 04 08       	push   $0x80490a4
 8048e7c:	68 40 a7 04 08       	push   $0x804a740
 8048e81:	e8 5a f8 ff ff       	call   80486e0 <_ZStlsISt11char_traitsIcEERSt13basic_ostreamIcT_ES5_PKc@plt>
 8048e86:	83 c4 10             	add    $0x10,%esp
 8048e89:	83 ec 08             	sub    $0x8,%esp
 8048e8c:	68 00 87 04 08       	push   $0x8048700
 8048e91:	50                   	push   %eax
 8048e92:	e8 59 f8 ff ff       	call   80486f0 <_ZNSolsEPFRSoS_E@plt>
 8048e97:	83 c4 10             	add    $0x10,%esp
 8048e9a:	b8 00 00 00 00       	mov    $0x0,%eax
 8048e9f:	c9                   	leave  
 8048ea0:	c3                   	ret    
 8048ea1:	66 90                	xchg   %ax,%ax
 8048ea3:	66 90                	xchg   %ax,%ax
 8048ea5:	66 90                	xchg   %ax,%ax
 8048ea7:	66 90                	xchg   %ax,%ax
 8048ea9:	66 90                	xchg   %ax,%ax
 8048eab:	66 90                	xchg   %ax,%ax
 8048ead:	66 90                	xchg   %ax,%ax
 8048eaf:	90                   	nop

08048eb0 <__libc_csu_init>:
 8048eb0:	55                   	push   %ebp
 8048eb1:	57                   	push   %edi
 8048eb2:	31 ff                	xor    %edi,%edi
 8048eb4:	56                   	push   %esi
 8048eb5:	53                   	push   %ebx
 8048eb6:	e8 a5 f8 ff ff       	call   8048760 <__x86.get_pc_thunk.bx>
 8048ebb:	81 c3 01 18 00 00    	add    $0x1801,%ebx
 8048ec1:	83 ec 1c             	sub    $0x1c,%esp
 8048ec4:	8b 6c 24 30          	mov    0x30(%esp),%ebp
 8048ec8:	8d b3 f4 fe ff ff    	lea    -0x10c(%ebx),%esi
 8048ece:	e8 6d f7 ff ff       	call   8048640 <_init>
 8048ed3:	8d 83 ec fe ff ff    	lea    -0x114(%ebx),%eax
 8048ed9:	29 c6                	sub    %eax,%esi
 8048edb:	c1 fe 02             	sar    $0x2,%esi
 8048ede:	85 f6                	test   %esi,%esi
 8048ee0:	74 27                	je     8048f09 <__libc_csu_init+0x59>
 8048ee2:	8d b6 00 00 00 00    	lea    0x0(%esi),%esi
 8048ee8:	8b 44 24 38          	mov    0x38(%esp),%eax
 8048eec:	89 2c 24             	mov    %ebp,(%esp)
 8048eef:	89 44 24 08          	mov    %eax,0x8(%esp)
 8048ef3:	8b 44 24 34          	mov    0x34(%esp),%eax
 8048ef7:	89 44 24 04          	mov    %eax,0x4(%esp)
 8048efb:	ff 94 bb ec fe ff ff 	call   *-0x114(%ebx,%edi,4)
 8048f02:	83 c7 01             	add    $0x1,%edi
 8048f05:	39 f7                	cmp    %esi,%edi
 8048f07:	75 df                	jne    8048ee8 <__libc_csu_init+0x38>
 8048f09:	83 c4 1c             	add    $0x1c,%esp
 8048f0c:	5b                   	pop    %ebx
 8048f0d:	5e                   	pop    %esi
 8048f0e:	5f                   	pop    %edi
 8048f0f:	5d                   	pop    %ebp
 8048f10:	c3                   	ret    
 8048f11:	eb 0d                	jmp    8048f20 <__libc_csu_fini>
 8048f13:	90                   	nop
 8048f14:	90                   	nop
 8048f15:	90                   	nop
 8048f16:	90                   	nop
 8048f17:	90                   	nop
 8048f18:	90                   	nop
 8048f19:	90                   	nop
 8048f1a:	90                   	nop
 8048f1b:	90                   	nop
 8048f1c:	90                   	nop
 8048f1d:	90                   	nop
 8048f1e:	90                   	nop
 8048f1f:	90                   	nop

08048f20 <__libc_csu_fini>:
 8048f20:	f3 c3                	repz ret 

Disassembly of section .fini:

08048f24 <_fini>:
 8048f24:	53                   	push   %ebx
 8048f25:	83 ec 08             	sub    $0x8,%esp
 8048f28:	e8 33 f8 ff ff       	call   8048760 <__x86.get_pc_thunk.bx>
 8048f2d:	81 c3 8f 17 00 00    	add    $0x178f,%ebx
 8048f33:	83 c4 08             	add    $0x8,%esp
 8048f36:	5b                   	pop    %ebx
 8048f37:	c3                   	ret    
