
vtbl_no_inheritance:     file format elf32-i386


Disassembly of section .init:

0804859c <_init>:
 804859c:	53                   	push   %ebx
 804859d:	83 ec 08             	sub    $0x8,%esp
 80485a0:	e8 fb 00 00 00       	call   80486a0 <__x86.get_pc_thunk.bx>
 80485a5:	81 c3 6f 0b 00 00    	add    $0xb6f,%ebx
 80485ab:	8b 83 fc ff ff ff    	mov    -0x4(%ebx),%eax
 80485b1:	85 c0                	test   %eax,%eax
 80485b3:	74 05                	je     80485ba <_init+0x1e>
 80485b5:	e8 36 00 00 00       	call   80485f0 <__gmon_start__@plt>
 80485ba:	83 c4 08             	add    $0x8,%esp
 80485bd:	5b                   	pop    %ebx
 80485be:	c3                   	ret    

Disassembly of section .plt:

080485c0 <_ZNSolsEi@plt-0x10>:
 80485c0:	ff 35 18 91 04 08    	pushl  0x8049118
 80485c6:	ff 25 1c 91 04 08    	jmp    *0x804911c
 80485cc:	00 00                	add    %al,(%eax)
	...

080485d0 <_ZNSolsEi@plt>:
 80485d0:	ff 25 20 91 04 08    	jmp    *0x8049120
 80485d6:	68 00 00 00 00       	push   $0x0
 80485db:	e9 e0 ff ff ff       	jmp    80485c0 <_init+0x24>

080485e0 <__cxa_atexit@plt>:
 80485e0:	ff 25 24 91 04 08    	jmp    *0x8049124
 80485e6:	68 08 00 00 00       	push   $0x8
 80485eb:	e9 d0 ff ff ff       	jmp    80485c0 <_init+0x24>

080485f0 <__gmon_start__@plt>:
 80485f0:	ff 25 28 91 04 08    	jmp    *0x8049128
 80485f6:	68 10 00 00 00       	push   $0x10
 80485fb:	e9 c0 ff ff ff       	jmp    80485c0 <_init+0x24>

08048600 <_ZNSt8ios_base4InitC1Ev@plt>:
 8048600:	ff 25 2c 91 04 08    	jmp    *0x804912c
 8048606:	68 18 00 00 00       	push   $0x18
 804860b:	e9 b0 ff ff ff       	jmp    80485c0 <_init+0x24>

08048610 <__libc_start_main@plt>:
 8048610:	ff 25 30 91 04 08    	jmp    *0x8049130
 8048616:	68 20 00 00 00       	push   $0x20
 804861b:	e9 a0 ff ff ff       	jmp    80485c0 <_init+0x24>

08048620 <_ZNSt8ios_base4InitD1Ev@plt>:
 8048620:	ff 25 34 91 04 08    	jmp    *0x8049134
 8048626:	68 28 00 00 00       	push   $0x28
 804862b:	e9 90 ff ff ff       	jmp    80485c0 <_init+0x24>

08048630 <_ZStlsISt11char_traitsIcEERSt13basic_ostreamIcT_ES5_PKc@plt>:
 8048630:	ff 25 38 91 04 08    	jmp    *0x8049138
 8048636:	68 30 00 00 00       	push   $0x30
 804863b:	e9 80 ff ff ff       	jmp    80485c0 <_init+0x24>

08048640 <_ZNSolsEPKv@plt>:
 8048640:	ff 25 3c 91 04 08    	jmp    *0x804913c
 8048646:	68 38 00 00 00       	push   $0x38
 804864b:	e9 70 ff ff ff       	jmp    80485c0 <_init+0x24>

08048650 <_ZNSolsEPFRSoS_E@plt>:
 8048650:	ff 25 40 91 04 08    	jmp    *0x8049140
 8048656:	68 40 00 00 00       	push   $0x40
 804865b:	e9 60 ff ff ff       	jmp    80485c0 <_init+0x24>

08048660 <_ZSt4endlIcSt11char_traitsIcEERSt13basic_ostreamIT_T0_ES6_@plt>:
 8048660:	ff 25 44 91 04 08    	jmp    *0x8049144
 8048666:	68 48 00 00 00       	push   $0x48
 804866b:	e9 50 ff ff ff       	jmp    80485c0 <_init+0x24>

Disassembly of section .text:

08048670 <_start>:
 8048670:	31 ed                	xor    %ebp,%ebp
 8048672:	5e                   	pop    %esi
 8048673:	89 e1                	mov    %esp,%ecx
 8048675:	83 e4 f0             	and    $0xfffffff0,%esp
 8048678:	50                   	push   %eax
 8048679:	54                   	push   %esp
 804867a:	52                   	push   %edx
 804867b:	68 70 8a 04 08       	push   $0x8048a70
 8048680:	68 00 8a 04 08       	push   $0x8048a00
 8048685:	51                   	push   %ecx
 8048686:	56                   	push   %esi
 8048687:	68 6b 87 04 08       	push   $0x804876b
 804868c:	e8 7f ff ff ff       	call   8048610 <__libc_start_main@plt>
 8048691:	f4                   	hlt    
 8048692:	66 90                	xchg   %ax,%ax
 8048694:	66 90                	xchg   %ax,%ax
 8048696:	66 90                	xchg   %ax,%ax
 8048698:	66 90                	xchg   %ax,%ax
 804869a:	66 90                	xchg   %ax,%ax
 804869c:	66 90                	xchg   %ax,%ax
 804869e:	66 90                	xchg   %ax,%ax

080486a0 <__x86.get_pc_thunk.bx>:
 80486a0:	8b 1c 24             	mov    (%esp),%ebx
 80486a3:	c3                   	ret    
 80486a4:	66 90                	xchg   %ax,%ax
 80486a6:	66 90                	xchg   %ax,%ax
 80486a8:	66 90                	xchg   %ax,%ax
 80486aa:	66 90                	xchg   %ax,%ax
 80486ac:	66 90                	xchg   %ax,%ax
 80486ae:	66 90                	xchg   %ax,%ax

080486b0 <deregister_tm_clones>:
 80486b0:	b8 53 91 04 08       	mov    $0x8049153,%eax
 80486b5:	2d 50 91 04 08       	sub    $0x8049150,%eax
 80486ba:	83 f8 06             	cmp    $0x6,%eax
 80486bd:	76 1a                	jbe    80486d9 <deregister_tm_clones+0x29>
 80486bf:	b8 00 00 00 00       	mov    $0x0,%eax
 80486c4:	85 c0                	test   %eax,%eax
 80486c6:	74 11                	je     80486d9 <deregister_tm_clones+0x29>
 80486c8:	55                   	push   %ebp
 80486c9:	89 e5                	mov    %esp,%ebp
 80486cb:	83 ec 14             	sub    $0x14,%esp
 80486ce:	68 50 91 04 08       	push   $0x8049150
 80486d3:	ff d0                	call   *%eax
 80486d5:	83 c4 10             	add    $0x10,%esp
 80486d8:	c9                   	leave  
 80486d9:	f3 c3                	repz ret 
 80486db:	90                   	nop
 80486dc:	8d 74 26 00          	lea    0x0(%esi,%eiz,1),%esi

080486e0 <register_tm_clones>:
 80486e0:	b8 50 91 04 08       	mov    $0x8049150,%eax
 80486e5:	2d 50 91 04 08       	sub    $0x8049150,%eax
 80486ea:	c1 f8 02             	sar    $0x2,%eax
 80486ed:	89 c2                	mov    %eax,%edx
 80486ef:	c1 ea 1f             	shr    $0x1f,%edx
 80486f2:	01 d0                	add    %edx,%eax
 80486f4:	d1 f8                	sar    %eax
 80486f6:	74 1b                	je     8048713 <register_tm_clones+0x33>
 80486f8:	ba 00 00 00 00       	mov    $0x0,%edx
 80486fd:	85 d2                	test   %edx,%edx
 80486ff:	74 12                	je     8048713 <register_tm_clones+0x33>
 8048701:	55                   	push   %ebp
 8048702:	89 e5                	mov    %esp,%ebp
 8048704:	83 ec 10             	sub    $0x10,%esp
 8048707:	50                   	push   %eax
 8048708:	68 50 91 04 08       	push   $0x8049150
 804870d:	ff d2                	call   *%edx
 804870f:	83 c4 10             	add    $0x10,%esp
 8048712:	c9                   	leave  
 8048713:	f3 c3                	repz ret 
 8048715:	8d 74 26 00          	lea    0x0(%esi,%eiz,1),%esi
 8048719:	8d bc 27 00 00 00 00 	lea    0x0(%edi,%eiz,1),%edi

08048720 <__do_global_dtors_aux>:
 8048720:	80 3d 4c 92 04 08 00 	cmpb   $0x0,0x804924c
 8048727:	75 13                	jne    804873c <__do_global_dtors_aux+0x1c>
 8048729:	55                   	push   %ebp
 804872a:	89 e5                	mov    %esp,%ebp
 804872c:	83 ec 08             	sub    $0x8,%esp
 804872f:	e8 7c ff ff ff       	call   80486b0 <deregister_tm_clones>
 8048734:	c6 05 4c 92 04 08 01 	movb   $0x1,0x804924c
 804873b:	c9                   	leave  
 804873c:	f3 c3                	repz ret 
 804873e:	66 90                	xchg   %ax,%ax

08048740 <frame_dummy>:
 8048740:	b8 0c 90 04 08       	mov    $0x804900c,%eax
 8048745:	8b 10                	mov    (%eax),%edx
 8048747:	85 d2                	test   %edx,%edx
 8048749:	75 05                	jne    8048750 <frame_dummy+0x10>
 804874b:	eb 93                	jmp    80486e0 <register_tm_clones>
 804874d:	8d 76 00             	lea    0x0(%esi),%esi
 8048750:	ba 00 00 00 00       	mov    $0x0,%edx
 8048755:	85 d2                	test   %edx,%edx
 8048757:	74 f2                	je     804874b <frame_dummy+0xb>
 8048759:	55                   	push   %ebp
 804875a:	89 e5                	mov    %esp,%ebp
 804875c:	83 ec 14             	sub    $0x14,%esp
 804875f:	50                   	push   %eax
 8048760:	ff d2                	call   *%edx
 8048762:	83 c4 10             	add    $0x10,%esp
 8048765:	c9                   	leave  
 8048766:	e9 75 ff ff ff       	jmp    80486e0 <register_tm_clones>

0804876b <main>:
 804876b:	8d 4c 24 04          	lea    0x4(%esp),%ecx
 804876f:	83 e4 f0             	and    $0xfffffff0,%esp
 8048772:	ff 71 fc             	pushl  -0x4(%ecx)
 8048775:	55                   	push   %ebp
 8048776:	89 e5                	mov    %esp,%ebp
 8048778:	53                   	push   %ebx
 8048779:	51                   	push   %ecx
 804877a:	83 ec 10             	sub    $0x10,%esp
 804877d:	83 ec 0c             	sub    $0xc,%esp
 8048780:	8d 45 f0             	lea    -0x10(%ebp),%eax
 8048783:	50                   	push   %eax
 8048784:	e8 5b 02 00 00       	call   80489e4 <_ZN10base_classC1Ev>
 8048789:	83 c4 10             	add    $0x10,%esp
 804878c:	83 ec 08             	sub    $0x8,%esp
 804878f:	68 f0 8a 04 08       	push   $0x8048af0
 8048794:	68 c0 91 04 08       	push   $0x80491c0
 8048799:	e8 92 fe ff ff       	call   8048630 <_ZStlsISt11char_traitsIcEERSt13basic_ostreamIcT_ES5_PKc@plt>
 804879e:	83 c4 10             	add    $0x10,%esp
 80487a1:	89 c2                	mov    %eax,%edx
 80487a3:	83 ec 08             	sub    $0x8,%esp
 80487a6:	8d 45 f0             	lea    -0x10(%ebp),%eax
 80487a9:	50                   	push   %eax
 80487aa:	52                   	push   %edx
 80487ab:	e8 90 fe ff ff       	call   8048640 <_ZNSolsEPKv@plt>
 80487b0:	83 c4 10             	add    $0x10,%esp
 80487b3:	83 ec 08             	sub    $0x8,%esp
 80487b6:	68 60 86 04 08       	push   $0x8048660
 80487bb:	50                   	push   %eax
 80487bc:	e8 8f fe ff ff       	call   8048650 <_ZNSolsEPFRSoS_E@plt>
 80487c1:	83 c4 10             	add    $0x10,%esp
 80487c4:	8d 45 f0             	lea    -0x10(%ebp),%eax
 80487c7:	8b 00                	mov    (%eax),%eax
 80487c9:	89 c3                	mov    %eax,%ebx
 80487cb:	83 ec 08             	sub    $0x8,%esp
 80487ce:	68 1c 8b 04 08       	push   $0x8048b1c
 80487d3:	68 c0 91 04 08       	push   $0x80491c0
 80487d8:	e8 53 fe ff ff       	call   8048630 <_ZStlsISt11char_traitsIcEERSt13basic_ostreamIcT_ES5_PKc@plt>
 80487dd:	83 c4 10             	add    $0x10,%esp
 80487e0:	83 ec 08             	sub    $0x8,%esp
 80487e3:	53                   	push   %ebx
 80487e4:	50                   	push   %eax
 80487e5:	e8 56 fe ff ff       	call   8048640 <_ZNSolsEPKv@plt>
 80487ea:	83 c4 10             	add    $0x10,%esp
 80487ed:	83 ec 08             	sub    $0x8,%esp
 80487f0:	68 60 86 04 08       	push   $0x8048660
 80487f5:	50                   	push   %eax
 80487f6:	e8 55 fe ff ff       	call   8048650 <_ZNSolsEPFRSoS_E@plt>
 80487fb:	83 c4 10             	add    $0x10,%esp
 80487fe:	8d 45 f0             	lea    -0x10(%ebp),%eax
 8048801:	8b 00                	mov    (%eax),%eax
 8048803:	83 c0 04             	add    $0x4,%eax
 8048806:	89 c3                	mov    %eax,%ebx
 8048808:	83 ec 08             	sub    $0x8,%esp
 804880b:	68 48 8b 04 08       	push   $0x8048b48
 8048810:	68 c0 91 04 08       	push   $0x80491c0
 8048815:	e8 16 fe ff ff       	call   8048630 <_ZStlsISt11char_traitsIcEERSt13basic_ostreamIcT_ES5_PKc@plt>
 804881a:	83 c4 10             	add    $0x10,%esp
 804881d:	83 ec 08             	sub    $0x8,%esp
 8048820:	53                   	push   %ebx
 8048821:	50                   	push   %eax
 8048822:	e8 19 fe ff ff       	call   8048640 <_ZNSolsEPKv@plt>
 8048827:	83 c4 10             	add    $0x10,%esp
 804882a:	83 ec 08             	sub    $0x8,%esp
 804882d:	68 60 86 04 08       	push   $0x8048660
 8048832:	50                   	push   %eax
 8048833:	e8 18 fe ff ff       	call   8048650 <_ZNSolsEPFRSoS_E@plt>
 8048838:	83 c4 10             	add    $0x10,%esp
 804883b:	8d 45 f0             	lea    -0x10(%ebp),%eax
 804883e:	8b 00                	mov    (%eax),%eax
 8048840:	83 c0 08             	add    $0x8,%eax
 8048843:	89 c3                	mov    %eax,%ebx
 8048845:	83 ec 08             	sub    $0x8,%esp
 8048848:	68 74 8b 04 08       	push   $0x8048b74
 804884d:	68 c0 91 04 08       	push   $0x80491c0
 8048852:	e8 d9 fd ff ff       	call   8048630 <_ZStlsISt11char_traitsIcEERSt13basic_ostreamIcT_ES5_PKc@plt>
 8048857:	83 c4 10             	add    $0x10,%esp
 804885a:	83 ec 08             	sub    $0x8,%esp
 804885d:	53                   	push   %ebx
 804885e:	50                   	push   %eax
 804885f:	e8 dc fd ff ff       	call   8048640 <_ZNSolsEPKv@plt>
 8048864:	83 c4 10             	add    $0x10,%esp
 8048867:	83 ec 08             	sub    $0x8,%esp
 804886a:	68 60 86 04 08       	push   $0x8048660
 804886f:	50                   	push   %eax
 8048870:	e8 db fd ff ff       	call   8048650 <_ZNSolsEPFRSoS_E@plt>
 8048875:	83 c4 10             	add    $0x10,%esp
 8048878:	8d 45 f0             	lea    -0x10(%ebp),%eax
 804887b:	8b 00                	mov    (%eax),%eax
 804887d:	83 c0 0c             	add    $0xc,%eax
 8048880:	8b 18                	mov    (%eax),%ebx
 8048882:	83 ec 08             	sub    $0x8,%esp
 8048885:	68 9f 8b 04 08       	push   $0x8048b9f
 804888a:	68 c0 91 04 08       	push   $0x80491c0
 804888f:	e8 9c fd ff ff       	call   8048630 <_ZStlsISt11char_traitsIcEERSt13basic_ostreamIcT_ES5_PKc@plt>
 8048894:	83 c4 10             	add    $0x10,%esp
 8048897:	83 ec 08             	sub    $0x8,%esp
 804889a:	53                   	push   %ebx
 804889b:	50                   	push   %eax
 804889c:	e8 2f fd ff ff       	call   80485d0 <_ZNSolsEi@plt>
 80488a1:	83 c4 10             	add    $0x10,%esp
 80488a4:	83 ec 08             	sub    $0x8,%esp
 80488a7:	68 60 86 04 08       	push   $0x8048660
 80488ac:	50                   	push   %eax
 80488ad:	e8 9e fd ff ff       	call   8048650 <_ZNSolsEPFRSoS_E@plt>
 80488b2:	83 c4 10             	add    $0x10,%esp
 80488b5:	c7 45 f4 00 00 00 00 	movl   $0x0,-0xc(%ebp)
 80488bc:	8d 45 f0             	lea    -0x10(%ebp),%eax
 80488bf:	8b 00                	mov    (%eax),%eax
 80488c1:	8b 00                	mov    (%eax),%eax
 80488c3:	89 45 f4             	mov    %eax,-0xc(%ebp)
 80488c6:	8b 45 f4             	mov    -0xc(%ebp),%eax
 80488c9:	ff d0                	call   *%eax
 80488cb:	8d 45 f0             	lea    -0x10(%ebp),%eax
 80488ce:	8b 00                	mov    (%eax),%eax
 80488d0:	83 c0 04             	add    $0x4,%eax
 80488d3:	8b 00                	mov    (%eax),%eax
 80488d5:	89 45 f4             	mov    %eax,-0xc(%ebp)
 80488d8:	8b 45 f4             	mov    -0xc(%ebp),%eax
 80488db:	ff d0                	call   *%eax
 80488dd:	8d 45 f0             	lea    -0x10(%ebp),%eax
 80488e0:	8b 00                	mov    (%eax),%eax
 80488e2:	83 c0 08             	add    $0x8,%eax
 80488e5:	8b 00                	mov    (%eax),%eax
 80488e7:	89 45 f4             	mov    %eax,-0xc(%ebp)
 80488ea:	8b 45 f4             	mov    -0xc(%ebp),%eax
 80488ed:	ff d0                	call   *%eax
 80488ef:	b8 00 00 00 00       	mov    $0x0,%eax
 80488f4:	8d 65 f8             	lea    -0x8(%ebp),%esp
 80488f7:	59                   	pop    %ecx
 80488f8:	5b                   	pop    %ebx
 80488f9:	5d                   	pop    %ebp
 80488fa:	8d 61 fc             	lea    -0x4(%ecx),%esp
 80488fd:	c3                   	ret    

080488fe <_Z41__static_initialization_and_destruction_0ii>:
 80488fe:	55                   	push   %ebp
 80488ff:	89 e5                	mov    %esp,%ebp
 8048901:	83 ec 08             	sub    $0x8,%esp
 8048904:	83 7d 08 01          	cmpl   $0x1,0x8(%ebp)
 8048908:	75 33                	jne    804893d <_Z41__static_initialization_and_destruction_0ii+0x3f>
 804890a:	81 7d 0c ff ff 00 00 	cmpl   $0xffff,0xc(%ebp)
 8048911:	75 2a                	jne    804893d <_Z41__static_initialization_and_destruction_0ii+0x3f>
 8048913:	83 ec 0c             	sub    $0xc,%esp
 8048916:	68 4d 92 04 08       	push   $0x804924d
 804891b:	e8 e0 fc ff ff       	call   8048600 <_ZNSt8ios_base4InitC1Ev@plt>
 8048920:	83 c4 10             	add    $0x10,%esp
 8048923:	83 ec 04             	sub    $0x4,%esp
 8048926:	68 4c 91 04 08       	push   $0x804914c
 804892b:	68 4d 92 04 08       	push   $0x804924d
 8048930:	68 20 86 04 08       	push   $0x8048620
 8048935:	e8 a6 fc ff ff       	call   80485e0 <__cxa_atexit@plt>
 804893a:	83 c4 10             	add    $0x10,%esp
 804893d:	c9                   	leave  
 804893e:	c3                   	ret    

0804893f <_GLOBAL__sub_I_main>:
 804893f:	55                   	push   %ebp
 8048940:	89 e5                	mov    %esp,%ebp
 8048942:	83 ec 08             	sub    $0x8,%esp
 8048945:	83 ec 08             	sub    $0x8,%esp
 8048948:	68 ff ff 00 00       	push   $0xffff
 804894d:	6a 01                	push   $0x1
 804894f:	e8 aa ff ff ff       	call   80488fe <_Z41__static_initialization_and_destruction_0ii>
 8048954:	83 c4 10             	add    $0x10,%esp
 8048957:	c9                   	leave  
 8048958:	c3                   	ret    
 8048959:	90                   	nop

0804895a <_ZN10base_class7v_func1Ev>:
 804895a:	55                   	push   %ebp
 804895b:	89 e5                	mov    %esp,%ebp
 804895d:	83 ec 08             	sub    $0x8,%esp
 8048960:	83 ec 08             	sub    $0x8,%esp
 8048963:	68 90 8a 04 08       	push   $0x8048a90
 8048968:	68 c0 91 04 08       	push   $0x80491c0
 804896d:	e8 be fc ff ff       	call   8048630 <_ZStlsISt11char_traitsIcEERSt13basic_ostreamIcT_ES5_PKc@plt>
 8048972:	83 c4 10             	add    $0x10,%esp
 8048975:	83 ec 08             	sub    $0x8,%esp
 8048978:	68 60 86 04 08       	push   $0x8048660
 804897d:	50                   	push   %eax
 804897e:	e8 cd fc ff ff       	call   8048650 <_ZNSolsEPFRSoS_E@plt>
 8048983:	83 c4 10             	add    $0x10,%esp
 8048986:	c9                   	leave  
 8048987:	c3                   	ret    

08048988 <_ZN10base_class7v_func2Ev>:
 8048988:	55                   	push   %ebp
 8048989:	89 e5                	mov    %esp,%ebp
 804898b:	83 ec 08             	sub    $0x8,%esp
 804898e:	83 ec 08             	sub    $0x8,%esp
 8048991:	68 b0 8a 04 08       	push   $0x8048ab0
 8048996:	68 c0 91 04 08       	push   $0x80491c0
 804899b:	e8 90 fc ff ff       	call   8048630 <_ZStlsISt11char_traitsIcEERSt13basic_ostreamIcT_ES5_PKc@plt>
 80489a0:	83 c4 10             	add    $0x10,%esp
 80489a3:	83 ec 08             	sub    $0x8,%esp
 80489a6:	68 60 86 04 08       	push   $0x8048660
 80489ab:	50                   	push   %eax
 80489ac:	e8 9f fc ff ff       	call   8048650 <_ZNSolsEPFRSoS_E@plt>
 80489b1:	83 c4 10             	add    $0x10,%esp
 80489b4:	c9                   	leave  
 80489b5:	c3                   	ret    

080489b6 <_ZN10base_class7v_func3Ev>:
 80489b6:	55                   	push   %ebp
 80489b7:	89 e5                	mov    %esp,%ebp
 80489b9:	83 ec 08             	sub    $0x8,%esp
 80489bc:	83 ec 08             	sub    $0x8,%esp
 80489bf:	68 d0 8a 04 08       	push   $0x8048ad0
 80489c4:	68 c0 91 04 08       	push   $0x80491c0
 80489c9:	e8 62 fc ff ff       	call   8048630 <_ZStlsISt11char_traitsIcEERSt13basic_ostreamIcT_ES5_PKc@plt>
 80489ce:	83 c4 10             	add    $0x10,%esp
 80489d1:	83 ec 08             	sub    $0x8,%esp
 80489d4:	68 60 86 04 08       	push   $0x8048660
 80489d9:	50                   	push   %eax
 80489da:	e8 71 fc ff ff       	call   8048650 <_ZNSolsEPFRSoS_E@plt>
 80489df:	83 c4 10             	add    $0x10,%esp
 80489e2:	c9                   	leave  
 80489e3:	c3                   	ret    

080489e4 <_ZN10base_classC1Ev>:
 80489e4:	55                   	push   %ebp
 80489e5:	89 e5                	mov    %esp,%ebp
 80489e7:	8b 45 08             	mov    0x8(%ebp),%eax
 80489ea:	c7 00 c8 8b 04 08    	movl   $0x8048bc8,(%eax)
 80489f0:	5d                   	pop    %ebp
 80489f1:	c3                   	ret    
 80489f2:	66 90                	xchg   %ax,%ax
 80489f4:	66 90                	xchg   %ax,%ax
 80489f6:	66 90                	xchg   %ax,%ax
 80489f8:	66 90                	xchg   %ax,%ax
 80489fa:	66 90                	xchg   %ax,%ax
 80489fc:	66 90                	xchg   %ax,%ax
 80489fe:	66 90                	xchg   %ax,%ax

08048a00 <__libc_csu_init>:
 8048a00:	55                   	push   %ebp
 8048a01:	57                   	push   %edi
 8048a02:	31 ff                	xor    %edi,%edi
 8048a04:	56                   	push   %esi
 8048a05:	53                   	push   %ebx
 8048a06:	e8 95 fc ff ff       	call   80486a0 <__x86.get_pc_thunk.bx>
 8048a0b:	81 c3 09 07 00 00    	add    $0x709,%ebx
 8048a11:	83 ec 1c             	sub    $0x1c,%esp
 8048a14:	8b 6c 24 30          	mov    0x30(%esp),%ebp
 8048a18:	8d b3 f4 fe ff ff    	lea    -0x10c(%ebx),%esi
 8048a1e:	e8 79 fb ff ff       	call   804859c <_init>
 8048a23:	8d 83 ec fe ff ff    	lea    -0x114(%ebx),%eax
 8048a29:	29 c6                	sub    %eax,%esi
 8048a2b:	c1 fe 02             	sar    $0x2,%esi
 8048a2e:	85 f6                	test   %esi,%esi
 8048a30:	74 27                	je     8048a59 <__libc_csu_init+0x59>
 8048a32:	8d b6 00 00 00 00    	lea    0x0(%esi),%esi
 8048a38:	8b 44 24 38          	mov    0x38(%esp),%eax
 8048a3c:	89 2c 24             	mov    %ebp,(%esp)
 8048a3f:	89 44 24 08          	mov    %eax,0x8(%esp)
 8048a43:	8b 44 24 34          	mov    0x34(%esp),%eax
 8048a47:	89 44 24 04          	mov    %eax,0x4(%esp)
 8048a4b:	ff 94 bb ec fe ff ff 	call   *-0x114(%ebx,%edi,4)
 8048a52:	83 c7 01             	add    $0x1,%edi
 8048a55:	39 f7                	cmp    %esi,%edi
 8048a57:	75 df                	jne    8048a38 <__libc_csu_init+0x38>
 8048a59:	83 c4 1c             	add    $0x1c,%esp
 8048a5c:	5b                   	pop    %ebx
 8048a5d:	5e                   	pop    %esi
 8048a5e:	5f                   	pop    %edi
 8048a5f:	5d                   	pop    %ebp
 8048a60:	c3                   	ret    
 8048a61:	eb 0d                	jmp    8048a70 <__libc_csu_fini>
 8048a63:	90                   	nop
 8048a64:	90                   	nop
 8048a65:	90                   	nop
 8048a66:	90                   	nop
 8048a67:	90                   	nop
 8048a68:	90                   	nop
 8048a69:	90                   	nop
 8048a6a:	90                   	nop
 8048a6b:	90                   	nop
 8048a6c:	90                   	nop
 8048a6d:	90                   	nop
 8048a6e:	90                   	nop
 8048a6f:	90                   	nop

08048a70 <__libc_csu_fini>:
 8048a70:	f3 c3                	repz ret 

Disassembly of section .fini:

08048a74 <_fini>:
 8048a74:	53                   	push   %ebx
 8048a75:	83 ec 08             	sub    $0x8,%esp
 8048a78:	e8 23 fc ff ff       	call   80486a0 <__x86.get_pc_thunk.bx>
 8048a7d:	81 c3 97 06 00 00    	add    $0x697,%ebx
 8048a83:	83 c4 08             	add    $0x8,%esp
 8048a86:	5b                   	pop    %ebx
 8048a87:	c3                   	ret    
