	.file	"Point3d_static.cpp"
	.text
.Ltext0:
	.section	.text._ZNKSt9type_info4nameEv,"axG",@progbits,_ZNKSt9type_info4nameEv,comdat
	.align 2
	.weak	_ZNKSt9type_info4nameEv
	.type	_ZNKSt9type_info4nameEv, @function
_ZNKSt9type_info4nameEv:
.LFB92:
	.file 1 "/usr/include/c++/4.9/typeinfo"
	.loc 1 99 0
	.cfi_startproc
	pushq	%rbp
	.cfi_def_cfa_offset 16
	.cfi_offset 6, -16
	movq	%rsp, %rbp
	.cfi_def_cfa_register 6
	movq	%rdi, -8(%rbp)
	.loc 1 100 0
	movq	-8(%rbp), %rax
	movq	8(%rax), %rax
	movzbl	(%rax), %eax
	cmpb	$42, %al
	jne	.L2
	.loc 1 100 0 is_stmt 0 discriminator 1
	movq	-8(%rbp), %rax
	movq	8(%rax), %rax
	addq	$1, %rax
	jmp	.L3
.L2:
	.loc 1 100 0 discriminator 2
	movq	-8(%rbp), %rax
	movq	8(%rax), %rax
.L3:
	.loc 1 100 0 discriminator 4
	popq	%rbp
	.cfi_def_cfa 7, 8
	ret
	.cfi_endproc
.LFE92:
	.size	_ZNKSt9type_info4nameEv, .-_ZNKSt9type_info4nameEv
	.section	.text._ZN7Point3d3funEi,"axG",@progbits,_ZN7Point3d3funEi,comdat
	.weak	_ZN7Point3d3funEi
	.type	_ZN7Point3d3funEi, @function
_ZN7Point3d3funEi:
.LFB105:
	.file 2 "Point3d_static.cpp"
	.loc 2 13 0 is_stmt 1
	.cfi_startproc
	pushq	%rbp
	.cfi_def_cfa_offset 16
	.cfi_offset 6, -16
	movq	%rsp, %rbp
	.cfi_def_cfa_register 6
	movl	%edi, -4(%rbp)
	.loc 2 13 0
	movl	-4(%rbp), %eax
	addl	$10, %eax
	popq	%rbp
	.cfi_def_cfa 7, 8
	ret
	.cfi_endproc
.LFE105:
	.size	_ZN7Point3d3funEi, .-_ZN7Point3d3funEi
	.section	.text._ZN7Point3d3barEi,"axG",@progbits,_ZN7Point3d3barEi,comdat
	.align 2
	.weak	_ZN7Point3d3barEi
	.type	_ZN7Point3d3barEi, @function
_ZN7Point3d3barEi:
.LFB106:
	.loc 2 14 0
	.cfi_startproc
	pushq	%rbp
	.cfi_def_cfa_offset 16
	.cfi_offset 6, -16
	movq	%rsp, %rbp
	.cfi_def_cfa_register 6
	movq	%rdi, -8(%rbp)
	movl	%esi, -12(%rbp)
	.loc 2 14 0
	movl	-12(%rbp), %eax
	addl	$10, %eax
	popq	%rbp
	.cfi_def_cfa 7, 8
	ret
	.cfi_endproc
.LFE106:
	.size	_ZN7Point3d3barEi, .-_ZN7Point3d3barEi
	.text
	.align 2
	.globl	_ZNK7Point3d9magnitudeEv
	.type	_ZNK7Point3d9magnitudeEv, @function
_ZNK7Point3d9magnitudeEv:
.LFB107:
	.loc 2 47 0
	.cfi_startproc
	pushq	%rbp
	.cfi_def_cfa_offset 16
	.cfi_offset 6, -16
	movq	%rsp, %rbp
	.cfi_def_cfa_register 6
	subq	$16, %rsp
	movq	%rdi, -8(%rbp)
	.loc 2 48 0
	movq	-8(%rbp), %rax
	movsd	8(%rax), %xmm1
	movq	-8(%rbp), %rax
	movsd	8(%rax), %xmm0
	mulsd	%xmm0, %xmm1
	movq	-8(%rbp), %rax
	movsd	16(%rax), %xmm2
	movq	-8(%rbp), %rax
	movsd	16(%rax), %xmm0
	mulsd	%xmm2, %xmm0
	addsd	%xmm0, %xmm1
	movq	-8(%rbp), %rax
	movsd	24(%rax), %xmm2
	movq	-8(%rbp), %rax
	movsd	24(%rax), %xmm0
	mulsd	%xmm2, %xmm0
	addsd	%xmm1, %xmm0
	call	sqrt
	movq	%xmm0, %rax
	movq	%rax, -16(%rbp)
	movsd	-16(%rbp), %xmm0
	.loc 2 49 0
	leave
	.cfi_def_cfa 7, 8
	ret
	.cfi_endproc
.LFE107:
	.size	_ZNK7Point3d9magnitudeEv, .-_ZNK7Point3d9magnitudeEv
	.section	.text._ZN7Point3dC2Ev,"axG",@progbits,_ZN7Point3dC5Ev,comdat
	.align 2
	.weak	_ZN7Point3dC2Ev
	.type	_ZN7Point3dC2Ev, @function
_ZN7Point3dC2Ev:
.LFB110:
	.loc 2 5 0
	.cfi_startproc
	pushq	%rbp
	.cfi_def_cfa_offset 16
	.cfi_offset 6, -16
	movq	%rsp, %rbp
	.cfi_def_cfa_register 6
	movq	%rdi, -8(%rbp)
.LBB2:
	.loc 2 5 0
	movq	-8(%rbp), %rax
	movq	$_ZTV7Point3d+16, (%rax)
.LBE2:
	popq	%rbp
	.cfi_def_cfa 7, 8
	ret
	.cfi_endproc
.LFE110:
	.size	_ZN7Point3dC2Ev, .-_ZN7Point3dC2Ev
	.weak	_ZN7Point3dC1Ev
	.set	_ZN7Point3dC1Ev,_ZN7Point3dC2Ev
	.text
	.align 2
	.globl	_ZN7Point3d9normalizeEv
	.type	_ZN7Point3d9normalizeEv, @function
_ZN7Point3d9normalizeEv:
.LFB108:
	.loc 2 54 0
	.cfi_startproc
	pushq	%rbp
	.cfi_def_cfa_offset 16
	.cfi_offset 6, -16
	movq	%rsp, %rbp
	.cfi_def_cfa_register 6
	subq	$32, %rsp
	movq	%rdi, -24(%rbp)
	movq	%rsi, -32(%rbp)
.LBB3:
	.loc 2 55 0
	movq	-32(%rbp), %rax
	movq	(%rax), %rax
	movq	(%rax), %rax
	movq	-32(%rbp), %rdx
	movq	%rdx, %rdi
	call	*%rax
	movq	%xmm0, %rax
	movq	%rax, -8(%rbp)
	.loc 2 56 0
	movq	-24(%rbp), %rax
	movq	%rax, %rdi
	call	_ZN7Point3dC1Ev
	.loc 2 57 0
	movq	-32(%rbp), %rax
	movsd	8(%rax), %xmm0
	divsd	-8(%rbp), %xmm0
	movq	%xmm0, %rax
	movq	-24(%rbp), %rdx
	movq	%rax, 8(%rdx)
	.loc 2 58 0
	movq	-32(%rbp), %rax
	movsd	16(%rax), %xmm0
	divsd	-8(%rbp), %xmm0
	movq	%xmm0, %rax
	movq	-24(%rbp), %rdx
	movq	%rax, 16(%rdx)
	.loc 2 59 0
	movq	-32(%rbp), %rax
	movsd	24(%rax), %xmm0
	divsd	-8(%rbp), %xmm0
	movq	%xmm0, %rax
	movq	-24(%rbp), %rdx
	movq	%rax, 24(%rdx)
	.loc 2 60 0
	nop
.LBE3:
	.loc 2 61 0
	movq	-24(%rbp), %rax
	leave
	.cfi_def_cfa 7, 8
	ret
	.cfi_endproc
.LFE108:
	.size	_ZN7Point3d9normalizeEv, .-_ZN7Point3d9normalizeEv
	.section	.rodata
.LC0:
	.string	"&fun: %p\n"
.LC1:
	.string	"&bar: %p\n"
.LC2:
	.string	"typeid fun: %s\n"
	.text
	.globl	main
	.type	main, @function
main:
.LFB115:
	.loc 2 65 0
	.cfi_startproc
	pushq	%rbp
	.cfi_def_cfa_offset 16
	.cfi_offset 6, -16
	movq	%rsp, %rbp
	.cfi_def_cfa_register 6
	pushq	%r13
	pushq	%r12
	pushq	%rbx
	subq	$88, %rsp
	.cfi_offset 13, -24
	.cfi_offset 12, -32
	.cfi_offset 3, -40
.LBB4:
	.loc 2 66 0
	leaq	-80(%rbp), %rax
	movq	%rax, %rdi
	call	_ZN7Point3dC1Ev
	.loc 2 67 0
	leaq	-80(%rbp), %rax
	movq	%rax, -40(%rbp)
	.loc 2 68 0
	movq	$0, -48(%rbp)
	.loc 2 72 0
	leaq	-112(%rbp), %rax
	leaq	-80(%rbp), %rdx
	movq	%rdx, %rsi
	movq	%rax, %rdi
	call	_ZN7Point3d9normalizeEv
	.loc 2 77 0
	movq	-40(%rbp), %rax
	movq	(%rax), %rax
	addq	$8, %rax
	movq	(%rax), %rax
	leaq	-112(%rbp), %rdx
	movq	-40(%rbp), %rcx
	movq	%rcx, %rsi
	movq	%rdx, %rdi
	call	*%rax
	.loc 2 82 0
	movl	$1, %edi
	call	_ZN7Point3d3funEi
	.loc 2 83 0
	movl	$1, %edi
	call	_ZN7Point3d3funEi
	.loc 2 84 0
	movl	$1, %edi
	call	_ZN7Point3d3funEi
	.loc 2 86 0
	movl	$_ZN7Point3d3funEi, %esi
	movl	$.LC0, %edi
	movl	$0, %eax
	call	printf
	.loc 2 87 0
	movl	$_ZN7Point3d3barEi, %r12d
	movl	$0, %r13d
	movq	%r12, %rcx
	movq	%r13, %rbx
	movq	%r12, %rax
	movq	%r13, %rdx
	movq	%rdx, %rax
	movq	%rcx, %rsi
	movq	%rax, %rdx
	movl	$.LC1, %edi
	movl	$0, %eax
	call	printf
	.loc 2 88 0
	movl	$_ZTIFiiE, %edi
	call	_ZNKSt9type_info4nameEv
	movq	%rax, %rsi
	movl	$.LC2, %edi
	movl	$0, %eax
	call	printf
	.loc 2 91 0
	movl	$0, %eax
.LBE4:
	.loc 2 92 0
	addq	$88, %rsp
	popq	%rbx
	popq	%r12
	popq	%r13
	popq	%rbp
	.cfi_def_cfa 7, 8
	ret
	.cfi_endproc
.LFE115:
	.size	main, .-main
	.weak	_ZTV7Point3d
	.section	.rodata._ZTV7Point3d,"aG",@progbits,_ZTV7Point3d,comdat
	.align 32
	.type	_ZTV7Point3d, @object
	.size	_ZTV7Point3d, 32
_ZTV7Point3d:
	.quad	0
	.quad	_ZTI7Point3d
	.quad	_ZNK7Point3d9magnitudeEv
	.quad	_ZN7Point3d9normalizeEv
	.weak	_ZTSFiiE
	.section	.rodata._ZTSFiiE,"aG",@progbits,_ZTSFiiE,comdat
	.type	_ZTSFiiE, @object
	.size	_ZTSFiiE, 5
_ZTSFiiE:
	.string	"FiiE"
	.weak	_ZTIFiiE
	.section	.rodata._ZTIFiiE,"aG",@progbits,_ZTIFiiE,comdat
	.align 16
	.type	_ZTIFiiE, @object
	.size	_ZTIFiiE, 16
_ZTIFiiE:
	.quad	_ZTVN10__cxxabiv120__function_type_infoE+16
	.quad	_ZTSFiiE
	.weak	_ZTI7Point3d
	.section	.rodata._ZTI7Point3d,"aG",@progbits,_ZTI7Point3d,comdat
	.align 16
	.type	_ZTI7Point3d, @object
	.size	_ZTI7Point3d, 16
_ZTI7Point3d:
	.quad	_ZTVN10__cxxabiv117__class_type_infoE+16
	.quad	_ZTS7Point3d
	.weak	_ZTS7Point3d
	.section	.rodata._ZTS7Point3d,"aG",@progbits,_ZTS7Point3d,comdat
	.type	_ZTS7Point3d, @object
	.size	_ZTS7Point3d, 9
_ZTS7Point3d:
	.string	"7Point3d"
	.text
.Letext0:
	.file 3 "/usr/lib/gcc/x86_64-linux-gnu/4.9/include/stddef.h"
	.file 4 "/usr/include/x86_64-linux-gnu/bits/types.h"
	.file 5 "/usr/include/stdio.h"
	.file 6 "/usr/include/libio.h"
	.file 7 "/usr/include/wchar.h"
	.file 8 "/usr/include/_G_config.h"
	.file 9 "/usr/include/c++/4.9/cstdio"
	.file 10 "<built-in>"
	.section	.note.GNU-stack,"",@progbits
