
02reentrant:     file format elf32-i386


Disassembly of section .init:

08048314 <_init>:
 8048314:	55                   	push   %ebp
 8048315:	89 e5                	mov    %esp,%ebp
 8048317:	53                   	push   %ebx
 8048318:	83 ec 04             	sub    $0x4,%esp
 804831b:	e8 00 00 00 00       	call   8048320 <_init+0xc>
 8048320:	5b                   	pop    %ebx
 8048321:	81 c3 a8 14 00 00    	add    $0x14a8,%ebx
 8048327:	8b 93 fc ff ff ff    	mov    -0x4(%ebx),%edx
 804832d:	85 d2                	test   %edx,%edx
 804832f:	74 05                	je     8048336 <_init+0x22>
 8048331:	e8 2e 00 00 00       	call   8048364 <__gmon_start__@plt>
 8048336:	e8 25 01 00 00       	call   8048460 <frame_dummy>
 804833b:	e8 a0 02 00 00       	call   80485e0 <__do_global_ctors_aux>
 8048340:	58                   	pop    %eax
 8048341:	5b                   	pop    %ebx
 8048342:	c9                   	leave  
 8048343:	c3                   	ret    

Disassembly of section .plt:

08048344 <signal@plt-0x10>:
 8048344:	ff 35 cc 97 04 08    	pushl  0x80497cc
 804834a:	ff 25 d0 97 04 08    	jmp    *0x80497d0
 8048350:	00 00                	add    %al,(%eax)
	...

08048354 <signal@plt>:
 8048354:	ff 25 d4 97 04 08    	jmp    *0x80497d4
 804835a:	68 00 00 00 00       	push   $0x0
 804835f:	e9 e0 ff ff ff       	jmp    8048344 <_init+0x30>

08048364 <__gmon_start__@plt>:
 8048364:	ff 25 d8 97 04 08    	jmp    *0x80497d8
 804836a:	68 08 00 00 00       	push   $0x8
 804836f:	e9 d0 ff ff ff       	jmp    8048344 <_init+0x30>

08048374 <__libc_start_main@plt>:
 8048374:	ff 25 dc 97 04 08    	jmp    *0x80497dc
 804837a:	68 10 00 00 00       	push   $0x10
 804837f:	e9 c0 ff ff ff       	jmp    8048344 <_init+0x30>

08048384 <perror@plt>:
 8048384:	ff 25 e0 97 04 08    	jmp    *0x80497e0
 804838a:	68 18 00 00 00       	push   $0x18
 804838f:	e9 b0 ff ff ff       	jmp    8048344 <_init+0x30>

08048394 <alarm@plt>:
 8048394:	ff 25 e4 97 04 08    	jmp    *0x80497e4
 804839a:	68 20 00 00 00       	push   $0x20
 804839f:	e9 a0 ff ff ff       	jmp    8048344 <_init+0x30>

080483a4 <printf@plt>:
 80483a4:	ff 25 e8 97 04 08    	jmp    *0x80497e8
 80483aa:	68 28 00 00 00       	push   $0x28
 80483af:	e9 90 ff ff ff       	jmp    8048344 <_init+0x30>

080483b4 <exit@plt>:
 80483b4:	ff 25 ec 97 04 08    	jmp    *0x80497ec
 80483ba:	68 30 00 00 00       	push   $0x30
 80483bf:	e9 80 ff ff ff       	jmp    8048344 <_init+0x30>

Disassembly of section .text:

080483d0 <_start>:
 80483d0:	31 ed                	xor    %ebp,%ebp
 80483d2:	5e                   	pop    %esi
 80483d3:	89 e1                	mov    %esp,%ecx
 80483d5:	83 e4 f0             	and    $0xfffffff0,%esp
 80483d8:	50                   	push   %eax
 80483d9:	54                   	push   %esp
 80483da:	52                   	push   %edx
 80483db:	68 70 85 04 08       	push   $0x8048570
 80483e0:	68 80 85 04 08       	push   $0x8048580
 80483e5:	51                   	push   %ecx
 80483e6:	56                   	push   %esi
 80483e7:	68 84 84 04 08       	push   $0x8048484
 80483ec:	e8 83 ff ff ff       	call   8048374 <__libc_start_main@plt>
 80483f1:	f4                   	hlt    
 80483f2:	90                   	nop
 80483f3:	90                   	nop
 80483f4:	90                   	nop
 80483f5:	90                   	nop
 80483f6:	90                   	nop
 80483f7:	90                   	nop
 80483f8:	90                   	nop
 80483f9:	90                   	nop
 80483fa:	90                   	nop
 80483fb:	90                   	nop
 80483fc:	90                   	nop
 80483fd:	90                   	nop
 80483fe:	90                   	nop
 80483ff:	90                   	nop

08048400 <__do_global_dtors_aux>:
 8048400:	55                   	push   %ebp
 8048401:	89 e5                	mov    %esp,%ebp
 8048403:	53                   	push   %ebx
 8048404:	8d 64 24 fc          	lea    -0x4(%esp),%esp
 8048408:	80 3d f4 97 04 08 00 	cmpb   $0x0,0x80497f4
 804840f:	75 3e                	jne    804844f <__do_global_dtors_aux+0x4f>
 8048411:	bb f4 96 04 08       	mov    $0x80496f4,%ebx
 8048416:	a1 f8 97 04 08       	mov    0x80497f8,%eax
 804841b:	81 eb f0 96 04 08    	sub    $0x80496f0,%ebx
 8048421:	c1 fb 02             	sar    $0x2,%ebx
 8048424:	83 eb 01             	sub    $0x1,%ebx
 8048427:	39 d8                	cmp    %ebx,%eax
 8048429:	73 1d                	jae    8048448 <__do_global_dtors_aux+0x48>
 804842b:	90                   	nop
 804842c:	8d 74 26 00          	lea    0x0(%esi,%eiz,1),%esi
 8048430:	83 c0 01             	add    $0x1,%eax
 8048433:	a3 f8 97 04 08       	mov    %eax,0x80497f8
 8048438:	ff 14 85 f0 96 04 08 	call   *0x80496f0(,%eax,4)
 804843f:	a1 f8 97 04 08       	mov    0x80497f8,%eax
 8048444:	39 d8                	cmp    %ebx,%eax
 8048446:	72 e8                	jb     8048430 <__do_global_dtors_aux+0x30>
 8048448:	c6 05 f4 97 04 08 01 	movb   $0x1,0x80497f4
 804844f:	8d 64 24 04          	lea    0x4(%esp),%esp
 8048453:	5b                   	pop    %ebx
 8048454:	5d                   	pop    %ebp
 8048455:	c3                   	ret    
 8048456:	8d 76 00             	lea    0x0(%esi),%esi
 8048459:	8d bc 27 00 00 00 00 	lea    0x0(%edi,%eiz,1),%edi

08048460 <frame_dummy>:
 8048460:	55                   	push   %ebp
 8048461:	89 e5                	mov    %esp,%ebp
 8048463:	8d 64 24 e8          	lea    -0x18(%esp),%esp
 8048467:	a1 f8 96 04 08       	mov    0x80496f8,%eax
 804846c:	85 c0                	test   %eax,%eax
 804846e:	74 12                	je     8048482 <frame_dummy+0x22>
 8048470:	b8 00 00 00 00       	mov    $0x0,%eax
 8048475:	85 c0                	test   %eax,%eax
 8048477:	74 09                	je     8048482 <frame_dummy+0x22>
 8048479:	c7 04 24 f8 96 04 08 	movl   $0x80496f8,(%esp)
 8048480:	ff d0                	call   *%eax
 8048482:	c9                   	leave  
 8048483:	c3                   	ret    

08048484 <main>:
 8048484:	55                   	push   %ebp
 8048485:	89 e5                	mov    %esp,%ebp
 8048487:	83 e4 f0             	and    $0xfffffff0,%esp
 804848a:	83 ec 20             	sub    $0x20,%esp
 804848d:	c7 44 24 18 00 00 00 	movl   $0x0,0x18(%esp)
 8048494:	00 
 8048495:	c7 44 24 1c 00 00 00 	movl   $0x0,0x1c(%esp)
 804849c:	00 
 804849d:	c7 44 24 10 01 00 00 	movl   $0x1,0x10(%esp)
 80484a4:	00 
 80484a5:	c7 44 24 14 01 00 00 	movl   $0x1,0x14(%esp)
 80484ac:	00 
 80484ad:	c7 44 24 04 4e 85 04 	movl   $0x804854e,0x4(%esp)
 80484b4:	08 
 80484b5:	c7 04 24 0e 00 00 00 	movl   $0xe,(%esp)
 80484bc:	e8 93 fe ff ff       	call   8048354 <signal@plt>
 80484c1:	83 f8 ff             	cmp    $0xffffffff,%eax
 80484c4:	75 18                	jne    80484de <main+0x5a>
 80484c6:	c7 04 24 34 86 04 08 	movl   $0x8048634,(%esp)
 80484cd:	e8 b2 fe ff ff       	call   8048384 <perror@plt>
 80484d2:	c7 04 24 01 00 00 00 	movl   $0x1,(%esp)
 80484d9:	e8 d6 fe ff ff       	call   80483b4 <exit@plt>
 80484de:	8b 44 24 18          	mov    0x18(%esp),%eax
 80484e2:	8b 54 24 1c          	mov    0x1c(%esp),%edx
 80484e6:	a3 fc 97 04 08       	mov    %eax,0x80497fc
 80484eb:	89 15 00 98 04 08    	mov    %edx,0x8049800
 80484f1:	c7 04 24 01 00 00 00 	movl   $0x1,(%esp)
 80484f8:	e8 97 fe ff ff       	call   8048394 <alarm@plt>
 80484fd:	8b 44 24 18          	mov    0x18(%esp),%eax
 8048501:	8b 54 24 1c          	mov    0x1c(%esp),%edx
 8048505:	a3 fc 97 04 08       	mov    %eax,0x80497fc
 804850a:	89 15 00 98 04 08    	mov    %edx,0x8049800
 8048510:	8b 44 24 10          	mov    0x10(%esp),%eax
 8048514:	8b 54 24 14          	mov    0x14(%esp),%edx
 8048518:	a3 fc 97 04 08       	mov    %eax,0x80497fc
 804851d:	89 15 00 98 04 08    	mov    %edx,0x8049800
 8048523:	eb d8                	jmp    80484fd <main+0x79>

08048525 <unsafe_fun>:
 8048525:	55                   	push   %ebp
 8048526:	89 e5                	mov    %esp,%ebp
 8048528:	83 ec 18             	sub    $0x18,%esp
 804852b:	8b 0d 00 98 04 08    	mov    0x8049800,%ecx
 8048531:	8b 15 fc 97 04 08    	mov    0x80497fc,%edx
 8048537:	b8 41 86 04 08       	mov    $0x8048641,%eax
 804853c:	89 4c 24 08          	mov    %ecx,0x8(%esp)
 8048540:	89 54 24 04          	mov    %edx,0x4(%esp)
 8048544:	89 04 24             	mov    %eax,(%esp)
 8048547:	e8 58 fe ff ff       	call   80483a4 <printf@plt>
 804854c:	c9                   	leave  
 804854d:	c3                   	ret    

0804854e <handler>:
 804854e:	55                   	push   %ebp
 804854f:	89 e5                	mov    %esp,%ebp
 8048551:	83 ec 18             	sub    $0x18,%esp
 8048554:	e8 cc ff ff ff       	call   8048525 <unsafe_fun>
 8048559:	c7 04 24 01 00 00 00 	movl   $0x1,(%esp)
 8048560:	e8 2f fe ff ff       	call   8048394 <alarm@plt>
 8048565:	c9                   	leave  
 8048566:	c3                   	ret    
 8048567:	90                   	nop
 8048568:	90                   	nop
 8048569:	90                   	nop
 804856a:	90                   	nop
 804856b:	90                   	nop
 804856c:	90                   	nop
 804856d:	90                   	nop
 804856e:	90                   	nop
 804856f:	90                   	nop

08048570 <__libc_csu_fini>:
 8048570:	55                   	push   %ebp
 8048571:	89 e5                	mov    %esp,%ebp
 8048573:	5d                   	pop    %ebp
 8048574:	c3                   	ret    
 8048575:	66 66 2e 0f 1f 84 00 	data32 nopw %cs:0x0(%eax,%eax,1)
 804857c:	00 00 00 00 

08048580 <__libc_csu_init>:
 8048580:	55                   	push   %ebp
 8048581:	89 e5                	mov    %esp,%ebp
 8048583:	57                   	push   %edi
 8048584:	56                   	push   %esi
 8048585:	53                   	push   %ebx
 8048586:	e8 4f 00 00 00       	call   80485da <__i686.get_pc_thunk.bx>
 804858b:	81 c3 3d 12 00 00    	add    $0x123d,%ebx
 8048591:	83 ec 1c             	sub    $0x1c,%esp
 8048594:	e8 7b fd ff ff       	call   8048314 <_init>
 8048599:	8d bb 20 ff ff ff    	lea    -0xe0(%ebx),%edi
 804859f:	8d 83 20 ff ff ff    	lea    -0xe0(%ebx),%eax
 80485a5:	29 c7                	sub    %eax,%edi
 80485a7:	c1 ff 02             	sar    $0x2,%edi
 80485aa:	85 ff                	test   %edi,%edi
 80485ac:	74 24                	je     80485d2 <__libc_csu_init+0x52>
 80485ae:	31 f6                	xor    %esi,%esi
 80485b0:	8b 45 10             	mov    0x10(%ebp),%eax
 80485b3:	89 44 24 08          	mov    %eax,0x8(%esp)
 80485b7:	8b 45 0c             	mov    0xc(%ebp),%eax
 80485ba:	89 44 24 04          	mov    %eax,0x4(%esp)
 80485be:	8b 45 08             	mov    0x8(%ebp),%eax
 80485c1:	89 04 24             	mov    %eax,(%esp)
 80485c4:	ff 94 b3 20 ff ff ff 	call   *-0xe0(%ebx,%esi,4)
 80485cb:	83 c6 01             	add    $0x1,%esi
 80485ce:	39 fe                	cmp    %edi,%esi
 80485d0:	72 de                	jb     80485b0 <__libc_csu_init+0x30>
 80485d2:	83 c4 1c             	add    $0x1c,%esp
 80485d5:	5b                   	pop    %ebx
 80485d6:	5e                   	pop    %esi
 80485d7:	5f                   	pop    %edi
 80485d8:	5d                   	pop    %ebp
 80485d9:	c3                   	ret    

080485da <__i686.get_pc_thunk.bx>:
 80485da:	8b 1c 24             	mov    (%esp),%ebx
 80485dd:	c3                   	ret    
 80485de:	90                   	nop
 80485df:	90                   	nop

080485e0 <__do_global_ctors_aux>:
 80485e0:	55                   	push   %ebp
 80485e1:	89 e5                	mov    %esp,%ebp
 80485e3:	53                   	push   %ebx
 80485e4:	8d 64 24 fc          	lea    -0x4(%esp),%esp
 80485e8:	a1 e8 96 04 08       	mov    0x80496e8,%eax
 80485ed:	83 f8 ff             	cmp    $0xffffffff,%eax
 80485f0:	74 12                	je     8048604 <__do_global_ctors_aux+0x24>
 80485f2:	bb e8 96 04 08       	mov    $0x80496e8,%ebx
 80485f7:	90                   	nop
 80485f8:	8d 5b fc             	lea    -0x4(%ebx),%ebx
 80485fb:	ff d0                	call   *%eax
 80485fd:	8b 03                	mov    (%ebx),%eax
 80485ff:	83 f8 ff             	cmp    $0xffffffff,%eax
 8048602:	75 f4                	jne    80485f8 <__do_global_ctors_aux+0x18>
 8048604:	8d 64 24 04          	lea    0x4(%esp),%esp
 8048608:	5b                   	pop    %ebx
 8048609:	5d                   	pop    %ebp
 804860a:	c3                   	ret    
 804860b:	90                   	nop

Disassembly of section .fini:

0804860c <_fini>:
 804860c:	55                   	push   %ebp
 804860d:	89 e5                	mov    %esp,%ebp
 804860f:	53                   	push   %ebx
 8048610:	83 ec 04             	sub    $0x4,%esp
 8048613:	e8 00 00 00 00       	call   8048618 <_fini+0xc>
 8048618:	5b                   	pop    %ebx
 8048619:	81 c3 b0 11 00 00    	add    $0x11b0,%ebx
 804861f:	e8 dc fd ff ff       	call   8048400 <__do_global_dtors_aux>
 8048624:	59                   	pop    %ecx
 8048625:	5b                   	pop    %ebx
 8048626:	c9                   	leave  
 8048627:	c3                   	ret    
